(dp0
S'KNN'
p1
(dp2
S'd2h'
p3
(lp4
(lp5
cnumpy.core.multiarray
scalar
p6
(cnumpy
dtype
p7
(S'f8'
p8
I0
I1
tp9
Rp10
(I3
S'<'
p11
NNNI-1
I-1
I0
tp12
bS'\x14\xaeG\xe1z\x14\xe6?'
p13
tp14
Rp15
ag6
(g10
S'{\x14\xaeG\xe1z\xe4?'
p16
tp17
Rp18
ag6
(g10
S'\xcd\xcc\xcc\xcc\xcc\xcc\xe4?'
p19
tp20
Rp21
ag6
(g10
S'\xb8\x1e\x85\xebQ\xb8\xe6?'
p22
tp23
Rp24
ag6
(g10
S'q=\n\xd7\xa3p\xe5?'
p25
tp26
Rp27
ag6
(g10
S'\x00\x00\x00\x00\x00\x00\xe8?'
p28
tp29
Rp30
ag6
(g10
S')\\\x8f\xc2\xf5(\xe4?'
p31
tp32
Rp33
ag6
(g10
S'\n\xd7\xa3p=\n\xef?'
p34
tp35
Rp36
ag6
(g10
S'\xcd\xcc\xcc\xcc\xcc\xcc\xe4?'
p37
tp38
Rp39
ag6
(g10
S'q=\n\xd7\xa3p\xe5?'
p40
tp41
Rp42
ag6
(g10
S'\xc3\xf5(\\\x8f\xc2\xe5?'
p43
tp44
Rp45
ag6
(g10
S'\x14\xaeG\xe1z\x14\xe6?'
p46
tp47
Rp48
ag6
(g10
S'\x9a\x99\x99\x99\x99\x99\xe9?'
p49
tp50
Rp51
ag6
(g10
S'\xd7\xa3p=\n\xd7\xeb?'
p52
tp53
Rp54
ag6
(g10
S'\\\x8f\xc2\xf5(\\\xe7?'
p55
tp56
Rp57
ag6
(g10
S')\\\x8f\xc2\xf5(\xe4?'
p58
tp59
Rp60
ag6
(g10
S'\x14\xaeG\xe1z\x14\xe6?'
p61
tp62
Rp63
ag6
(g10
S'\x14\xaeG\xe1z\x14\xe6?'
p64
tp65
Rp66
ag6
(g10
S'\xaeG\xe1z\x14\xae\xe7?'
p67
tp68
Rp69
ag6
(g10
S'333333\xeb?'
p70
tp71
Rp72
ag6
(g10
S'\x85\xebQ\xb8\x1e\x85\xe3?'
p73
tp74
Rp75
ag6
(g10
S'{\x14\xaeG\xe1z\xe4?'
p76
tp77
Rp78
ag6
(g10
S')\\\x8f\xc2\xf5(\xec?'
p79
tp80
Rp81
ag6
(g10
S'\x9a\x99\x99\x99\x99\x99\xe9?'
p82
tp83
Rp84
ag6
(g10
S')\\\x8f\xc2\xf5(\xec?'
p85
tp86
Rp87
ag6
(g10
S'\x1f\x85\xebQ\xb8\x1e\xe5?'
p88
tp89
Rp90
ag6
(g10
S'\xcd\xcc\xcc\xcc\xcc\xcc\xe4?'
p91
tp92
Rp93
ag6
(g10
S'\xc3\xf5(\\\x8f\xc2\xe5?'
p94
tp95
Rp96
ag6
(g10
S'\xe1z\x14\xaeG\xe1\xea?'
p97
tp98
Rp99
ag6
(g10
S'\\\x8f\xc2\xf5(\\\xe7?'
p100
tp101
Rp102
aa(lp103
ccollections
OrderedDict
p104
((lp105
(lp106
S'm'
p107
aI50
aa(lp108
S'r'
p109
aI3
aa(lp110
S'k'
p111
aI20
aatp112
Rp113
ag104
((lp114
(lp115
g107
aI50
aa(lp116
g109
aI5
aa(lp117
g111
aI18
aatp118
Rp119
ag104
((lp120
(lp121
g107
aI50
aa(lp122
g109
aI6
aa(lp123
g111
aI17
aatp124
Rp125
ag104
((lp126
(lp127
g107
aI50
aa(lp128
g109
aI6
aa(lp129
g111
aI12
aatp130
Rp131
ag104
((lp132
(lp133
g107
aI50
aa(lp134
g109
aI5
aa(lp135
g111
aI18
aatp136
Rp137
ag104
((lp138
(lp139
g107
aI50
aa(lp140
g109
aI3
aa(lp141
g111
aI13
aatp142
Rp143
ag104
((lp144
(lp145
g107
aI50
aa(lp146
g109
aI6
aa(lp147
g111
aI17
aatp148
Rp149
ag104
((lp150
(lp151
g107
aI50
aa(lp152
g109
aI5
aa(lp153
g111
aI11
aatp154
Rp155
ag104
((lp156
(lp157
g107
aI50
aa(lp158
g109
aI4
aa(lp159
g111
aI10
aatp160
Rp161
ag104
((lp162
(lp163
g107
aI50
aa(lp164
g109
aI3
aa(lp165
g111
aI5
aatp166
Rp167
ag104
((lp168
(lp169
g107
aI50
aa(lp170
g109
aI6
aa(lp171
g111
aI14
aatp172
Rp173
ag104
((lp174
(lp175
g107
aI50
aa(lp176
g109
aI4
aa(lp177
g111
aI18
aatp178
Rp179
ag104
((lp180
(lp181
g107
aI50
aa(lp182
g109
aI3
aa(lp183
g111
aI5
aatp184
Rp185
ag104
((lp186
(lp187
g107
aI50
aa(lp188
g109
aI5
aa(lp189
g111
aI18
aatp190
Rp191
ag104
((lp192
(lp193
g107
aI50
aa(lp194
g109
aI3
aa(lp195
g111
aI13
aatp196
Rp197
ag104
((lp198
(lp199
g107
aI50
aa(lp200
g109
aI6
aa(lp201
g111
aI12
aatp202
Rp203
ag104
((lp204
(lp205
g107
aI50
aa(lp206
g109
aI6
aa(lp207
g111
aI14
aatp208
Rp209
ag104
((lp210
(lp211
g107
aI50
aa(lp212
g109
aI5
aa(lp213
g111
aI11
aatp214
Rp215
ag104
((lp216
(lp217
g107
aI50
aa(lp218
g109
aI3
aa(lp219
g111
aI5
aatp220
Rp221
ag104
((lp222
(lp223
g107
aI50
aa(lp224
g109
aI5
aa(lp225
g111
aI17
aatp226
Rp227
ag104
((lp228
(lp229
g107
aI50
aa(lp230
g109
aI3
aa(lp231
g111
aI5
aatp232
Rp233
ag104
((lp234
(lp235
g107
aI50
aa(lp236
g109
aI6
aa(lp237
g111
aI12
aatp238
Rp239
ag104
((lp240
(lp241
g107
aI50
aa(lp242
g109
aI3
aa(lp243
g111
aI5
aatp244
Rp245
ag104
((lp246
(lp247
g107
aI50
aa(lp248
g109
aI3
aa(lp249
g111
aI5
aatp250
Rp251
ag104
((lp252
(lp253
g107
aI50
aa(lp254
g109
aI3
aa(lp255
g111
aI20
aatp256
Rp257
ag104
((lp258
(lp259
g107
aI50
aa(lp260
g109
aI5
aa(lp261
g111
aI11
aatp262
Rp263
ag104
((lp264
(lp265
g107
aI50
aa(lp266
g109
aI6
aa(lp267
g111
aI12
aatp268
Rp269
ag104
((lp270
(lp271
g107
aI50
aa(lp272
g109
aI3
aa(lp273
g111
aI5
aatp274
Rp275
ag104
((lp276
(lp277
g107
aI50
aa(lp278
g109
aI3
aa(lp279
g111
aI13
aatp280
Rp281
ag104
((lp282
(lp283
g107
aI50
aa(lp284
g109
aI5
aa(lp285
g111
aI11
aatp286
Rp287
aaF627.725527048111
asS'popt20'
p288
(lp289
(lp290
F0.05
aF0.05
aF0.01
aF0.0
aF0.05
aF0.04
aF0.0
aF0.0
aF0.0
aF0.01
aF0.03
aF0.04
aF0.01
aF0.01
aF0.02
aF0.03
aF0.04
aF0.04
aF0.04
aF0.0
aF0.4
aF0.05
aF0.02
aF0.05
aF0.05
aF0.0
aF0.04
aF0.04
aF0.05
aF0.05
aa(lp291
g104
((lp292
(lp293
g107
aI200
aa(lp294
g109
aI3
aa(lp295
g111
aI5
aatp296
Rp297
ag104
((lp298
(lp299
g107
aI400
aa(lp300
g109
aI2
aa(lp301
g111
aI19
aatp302
Rp303
ag104
((lp304
(lp305
g107
aI50
aa(lp306
g109
aI3
aa(lp307
g111
aI5
aatp308
Rp309
ag104
((lp310
(lp311
g107
aI400
aa(lp312
g109
aI1
aa(lp313
g111
aI12
aatp314
Rp315
ag104
((lp316
(lp317
g107
aI400
aa(lp318
g109
aI2
aa(lp319
g111
aI15
aatp320
Rp321
ag104
((lp322
(lp323
g107
aI200
aa(lp324
g109
aI2
aa(lp325
g111
aI12
aatp326
Rp327
ag104
((lp328
(lp329
g107
aI400
aa(lp330
g109
aI2
aa(lp331
g111
aI16
aatp332
Rp333
ag104
((lp334
(lp335
g107
aI400
aa(lp336
g109
aI5
aa(lp337
g111
aI18
aatp338
Rp339
ag104
((lp340
(lp341
g107
aI400
aa(lp342
g109
aI1
aa(lp343
g111
aI5
aatp344
Rp345
ag104
((lp346
(lp347
g107
aI50
aa(lp348
g109
aI3
aa(lp349
g111
aI13
aatp350
Rp351
ag104
((lp352
(lp353
g107
aI200
aa(lp354
g109
aI2
aa(lp355
g111
aI21
aatp356
Rp357
ag104
((lp358
(lp359
g107
aI200
aa(lp360
g109
aI3
aa(lp361
g111
aI5
aatp362
Rp363
ag104
((lp364
(lp365
g107
aI50
aa(lp366
g109
aI3
aa(lp367
g111
aI20
aatp368
Rp369
ag104
((lp370
(lp371
g107
aI50
aa(lp372
g109
aI3
aa(lp373
g111
aI13
aatp374
Rp375
ag104
((lp376
(lp377
g107
aI50
aa(lp378
g109
aI2
aa(lp379
g111
aI21
aatp380
Rp381
ag104
((lp382
(lp383
g107
aI100
aa(lp384
g109
aI2
aa(lp385
g111
aI20
aatp386
Rp387
ag104
((lp388
(lp389
g107
aI200
aa(lp390
g109
aI1
aa(lp391
g111
aI14
aatp392
Rp393
ag104
((lp394
(lp395
g107
aI200
aa(lp396
g109
aI6
aa(lp397
g111
aI18
aatp398
Rp399
ag104
((lp400
(lp401
g107
aI200
aa(lp402
g109
aI1
aa(lp403
g111
aI11
aatp404
Rp405
ag104
((lp406
(lp407
g107
aI200
aa(lp408
g109
aI5
aa(lp409
g111
aI6
aatp410
Rp411
ag104
((lp412
(lp413
g107
aI50
aa(lp414
g109
aI3
aa(lp415
g111
aI5
aatp416
Rp417
ag104
((lp418
(lp419
g107
aI400
aa(lp420
g109
aI1
aa(lp421
g111
aI15
aatp422
Rp423
ag104
((lp424
(lp425
g107
aI50
aa(lp426
g109
aI6
aa(lp427
g111
aI12
aatp428
Rp429
ag104
((lp430
(lp431
g107
aI400
aa(lp432
g109
aI5
aa(lp433
g111
aI6
aatp434
Rp435
ag104
((lp436
(lp437
g107
aI400
aa(lp438
g109
aI1
aa(lp439
g111
aI15
aatp440
Rp441
ag104
((lp442
(lp443
g107
aI400
aa(lp444
g109
aI3
aa(lp445
g111
aI11
aatp446
Rp447
ag104
((lp448
(lp449
g107
aI200
aa(lp450
g109
aI3
aa(lp451
g111
aI5
aatp452
Rp453
ag104
((lp454
(lp455
g107
aI200
aa(lp456
g109
aI6
aa(lp457
g111
aI18
aatp458
Rp459
ag104
((lp460
(lp461
g107
aI400
aa(lp462
g109
aI1
aa(lp463
g111
aI5
aatp464
Rp465
ag104
((lp466
(lp467
g107
aI400
aa(lp468
g109
aI1
aa(lp469
g111
aI6
aatp470
Rp471
aaF490.8598430156708
assS'SVM'
p472
(dp473
g3
(lp474
(lp475
g6
(g10
S'\x1f\x85\xebQ\xb8\x1e\xe5?'
p476
tp477
Rp478
aI0
ag6
(g10
S'\xc3\xf5(\\\x8f\xc2\xd5?'
p479
tp480
Rp481
ag6
(g10
S'ffffff\xe6?'
p482
tp483
Rp484
ag6
(g10
S'q=\n\xd7\xa3p\xdd?'
p485
tp486
Rp487
ag6
(g10
S'\xaeG\xe1z\x14\xae\xe7?'
p488
tp489
Rp490
ag6
(g10
S'\xcd\xcc\xcc\xcc\xcc\xcc\xe4?'
p491
tp492
Rp493
ag6
(g10
S'R\xb8\x1e\x85\xebQ\xe8?'
p494
tp495
Rp496
ag6
(g10
S'\xb8\x1e\x85\xebQ\xb8\xe6?'
p497
tp498
Rp499
ag6
(g10
S'\xf6(\\\x8f\xc2\xf5\xd8?'
p500
tp501
Rp502
ag6
(g10
S'\xe1z\x14\xaeG\xe1\xda?'
p503
tp504
Rp505
ag6
(g10
S'\x9a\x99\x99\x99\x99\x99\xe1?'
p506
tp507
Rp508
aI0
ag6
(g10
S'\x00\x00\x00\x00\x00\x00\xe0?'
p509
tp510
Rp511
ag6
(g10
S'\xe1z\x14\xaeG\xe1\xe2?'
p512
tp513
Rp514
ag6
(g10
S'H\xe1z\x14\xaeG\xe1?'
p515
tp516
Rp517
ag6
(g10
S'\x85\xebQ\xb8\x1e\x85\xeb?'
p518
tp519
Rp520
ag6
(g10
S'\x85\xebQ\xb8\x1e\x85\xdb?'
p521
tp522
Rp523
ag6
(g10
S'\x8f\xc2\xf5(\\\x8f\xe2?'
p524
tp525
Rp526
ag6
(g10
S'\x8f\xc2\xf5(\\\x8f\xea?'
p527
tp528
Rp529
ag6
(g10
S'\\\x8f\xc2\xf5(\\\xdf?'
p530
tp531
Rp532
ag6
(g10
S'\xe1z\x14\xaeG\xe1\xda?'
p533
tp534
Rp535
ag6
(g10
S'ffffff\xd6?'
p536
tp537
Rp538
ag6
(g10
S'ffffff\xd6?'
p539
tp540
Rp541
ag6
(g10
S'333333\xe3?'
p542
tp543
Rp544
ag6
(g10
S'\xcd\xcc\xcc\xcc\xcc\xcc\xec?'
p545
tp546
Rp547
ag6
(g10
S'\xf6(\\\x8f\xc2\xf5\xe0?'
p548
tp549
Rp550
ag6
(g10
S'\x85\xebQ\xb8\x1e\x85\xdb?'
p551
tp552
Rp553
aI0
ag6
(g10
S'\xcd\xcc\xcc\xcc\xcc\xcc\xdc?'
p554
tp555
Rp556
aa(lp557
g104
((lp558
(lp559
g107
aI400
aa(lp560
g109
aI1
aa(lp561
g111
aI12
aatp562
Rp563
ag104
((lp564
(lp565
g107
aI100
aa(lp566
g109
aI4
aa(lp567
g111
aI11
aatp568
Rp569
ag104
((lp570
(lp571
g107
aI400
aa(lp572
g109
aI1
aa(lp573
g111
aI21
aatp574
Rp575
ag104
((lp576
(lp577
g107
aI50
aa(lp578
g109
aI3
aa(lp579
g111
aI13
aatp580
Rp581
ag104
((lp582
(lp583
g107
aI100
aa(lp584
g109
aI1
aa(lp585
g111
aI18
aatp586
Rp587
ag104
((lp588
(lp589
g107
aI400
aa(lp590
g109
aI1
aa(lp591
g111
aI12
aatp592
Rp593
ag104
((lp594
(lp595
g107
aI200
aa(lp596
g109
aI1
aa(lp597
g111
aI13
aatp598
Rp599
ag104
((lp600
(lp601
g107
aI100
aa(lp602
g109
aI4
aa(lp603
g111
aI17
aatp604
Rp605
ag104
((lp606
(lp607
g107
aI400
aa(lp608
g109
aI5
aa(lp609
g111
aI13
aatp610
Rp611
ag104
((lp612
(lp613
g107
aI400
aa(lp614
g109
aI1
aa(lp615
g111
aI7
aatp616
Rp617
ag104
((lp618
(lp619
g107
aI400
aa(lp620
g109
aI1
aa(lp621
g111
aI15
aatp622
Rp623
ag104
((lp624
(lp625
g107
aI50
aa(lp626
g109
aI2
aa(lp627
g111
aI13
aatp628
Rp629
ag104
((lp630
(lp631
g107
aI400
aa(lp632
g109
aI1
aa(lp633
g111
aI12
aatp634
Rp635
ag104
((lp636
(lp637
g107
aI50
aa(lp638
g109
aI3
aa(lp639
g111
aI5
aatp640
Rp641
ag104
((lp642
(lp643
g107
aI50
aa(lp644
g109
aI6
aa(lp645
g111
aI12
aatp646
Rp647
ag104
((lp648
(lp649
g107
aI400
aa(lp650
g109
aI2
aa(lp651
g111
aI19
aatp652
Rp653
ag104
((lp654
(lp655
g107
aI50
aa(lp656
g109
aI5
aa(lp657
g111
aI11
aatp658
Rp659
ag104
((lp660
(lp661
g107
aI200
aa(lp662
g109
aI6
aa(lp663
g111
aI19
aatp664
Rp665
ag104
((lp666
(lp667
g107
aI50
aa(lp668
g109
aI5
aa(lp669
g111
aI11
aatp670
Rp671
ag104
((lp672
(lp673
g107
aI50
aa(lp674
g109
aI3
aa(lp675
g111
aI5
aatp676
Rp677
ag104
((lp678
(lp679
g107
aI400
aa(lp680
g109
aI6
aa(lp681
g111
aI13
aatp682
Rp683
ag104
((lp684
(lp685
g107
aI200
aa(lp686
g109
aI2
aa(lp687
g111
aI12
aatp688
Rp689
ag104
((lp690
(lp691
g107
aI200
aa(lp692
g109
aI3
aa(lp693
g111
aI11
aatp694
Rp695
ag104
((lp696
(lp697
g107
aI50
aa(lp698
g109
aI6
aa(lp699
g111
aI12
aatp700
Rp701
ag104
((lp702
(lp703
g107
aI400
aa(lp704
g109
aI4
aa(lp705
g111
aI13
aatp706
Rp707
ag104
((lp708
(lp709
g107
aI50
aa(lp710
g109
aI6
aa(lp711
g111
aI17
aatp712
Rp713
ag104
((lp714
(lp715
g107
aI400
aa(lp716
g109
aI1
aa(lp717
g111
aI5
aatp718
Rp719
ag104
((lp720
(lp721
g107
aI400
aa(lp722
g109
aI1
aa(lp723
g111
aI15
aatp724
Rp725
ag104
((lp726
(lp727
g107
aI50
aa(lp728
g109
aI5
aa(lp729
g111
aI18
aatp730
Rp731
ag104
((lp732
(lp733
g107
aI50
aa(lp734
g109
aI6
aa(lp735
g111
aI17
aatp736
Rp737
aaF370.662230014801
asg288
(lp738
(lp739
F0.04
aF0.39
aF0.08
aF0.03
aF0.01
aF0.08
aF0.02
aF0.03
aF0.11
aF0.4
aF0.41
aF0.38
aF0.02
aF0.34
aF0.1
aF0.04
aF0.02
aF0.02
aF0.17
aF0.02
aF0.4
aF0.4
aF0.39
aF0.03
aF0.41
aF0.08
aF0.39
aF0.03
aF0.39
aF0.07
aa(lp740
g104
((lp741
(lp742
g107
aI50
aa(lp743
g109
aI2
aa(lp744
g111
aI20
aatp745
Rp746
ag104
((lp747
(lp748
g107
aI50
aa(lp749
g109
aI5
aa(lp750
g111
aI11
aatp751
Rp752
ag104
((lp753
(lp754
g107
aI200
aa(lp755
g109
aI3
aa(lp756
g111
aI5
aatp757
Rp758
ag104
((lp759
(lp760
g107
aI400
aa(lp761
g109
aI6
aa(lp762
g111
aI17
aatp763
Rp764
ag104
((lp765
(lp766
g107
aI100
aa(lp767
g109
aI4
aa(lp768
g111
aI17
aatp769
Rp770
ag104
((lp771
(lp772
g107
aI50
aa(lp773
g109
aI4
aa(lp774
g111
aI6
aatp775
Rp776
ag104
((lp777
(lp778
g107
aI50
aa(lp779
g109
aI2
aa(lp780
g111
aI15
aatp781
Rp782
ag104
((lp783
(lp784
g107
aI100
aa(lp785
g109
aI4
aa(lp786
g111
aI8
aatp787
Rp788
ag104
((lp789
(lp790
g107
aI100
aa(lp791
g109
aI3
aa(lp792
g111
aI13
aatp793
Rp794
ag104
((lp795
(lp796
g107
aI50
aa(lp797
g109
aI6
aa(lp798
g111
aI17
aatp799
Rp800
ag104
((lp801
(lp802
g107
aI100
aa(lp803
g109
aI2
aa(lp804
g111
aI19
aatp805
Rp806
ag104
((lp807
(lp808
g107
aI50
aa(lp809
g109
aI5
aa(lp810
g111
aI11
aatp811
Rp812
ag104
((lp813
(lp814
g107
aI400
aa(lp815
g109
aI1
aa(lp816
g111
aI13
aatp817
Rp818
ag104
((lp819
(lp820
g107
aI50
aa(lp821
g109
aI3
aa(lp822
g111
aI5
aatp823
Rp824
ag104
((lp825
(lp826
g107
aI200
aa(lp827
g109
aI6
aa(lp828
g111
aI9
aatp829
Rp830
ag104
((lp831
(lp832
g107
aI200
aa(lp833
g109
aI6
aa(lp834
g111
aI11
aatp835
Rp836
ag104
((lp837
(lp838
g107
aI200
aa(lp839
g109
aI6
aa(lp840
g111
aI9
aatp841
Rp842
ag104
((lp843
(lp844
g107
aI50
aa(lp845
g109
aI3
aa(lp846
g111
aI20
aatp847
Rp848
ag104
((lp849
(lp850
g107
aI200
aa(lp851
g109
aI6
aa(lp852
g111
aI18
aatp853
Rp854
ag104
((lp855
(lp856
g107
aI200
aa(lp857
g109
aI4
aa(lp858
g111
aI10
aatp859
Rp860
ag104
((lp861
(lp862
g107
aI50
aa(lp863
g109
aI3
aa(lp864
g111
aI5
aatp865
Rp866
ag104
((lp867
(lp868
g107
aI50
aa(lp869
g109
aI6
aa(lp870
g111
aI12
aatp871
Rp872
ag104
((lp873
(lp874
g107
aI100
aa(lp875
g109
aI4
aa(lp876
g111
aI5
aatp877
Rp878
ag104
((lp879
(lp880
g107
aI200
aa(lp881
g109
aI6
aa(lp882
g111
aI11
aatp883
Rp884
ag104
((lp885
(lp886
g107
aI50
aa(lp887
g109
aI3
aa(lp888
g111
aI5
aatp889
Rp890
ag104
((lp891
(lp892
g107
aI200
aa(lp893
g109
aI5
aa(lp894
g111
aI6
aatp895
Rp896
ag104
((lp897
(lp898
g107
aI50
aa(lp899
g109
aI4
aa(lp900
g111
aI11
aatp901
Rp902
ag104
((lp903
(lp904
g107
aI50
aa(lp905
g109
aI6
aa(lp906
g111
aI12
aatp907
Rp908
ag104
((lp909
(lp910
g107
aI100
aa(lp911
g109
aI3
aa(lp912
g111
aI12
aatp913
Rp914
ag104
((lp915
(lp916
g107
aI50
aa(lp917
g109
aI6
aa(lp918
g111
aI12
aatp919
Rp920
aaF377.58417296409607
assS'NB'
p921
(dp922
g3
(lp923
(lp924
g6
(g10
S'\xc3\xf5(\\\x8f\xc2\xd5?'
p925
tp926
Rp927
ag6
(g10
S'\x1f\x85\xebQ\xb8\x1e\xd5?'
p928
tp929
Rp930
ag6
(g10
S'\xecQ\xb8\x1e\x85\xeb\xd1?'
p931
tp932
Rp933
ag6
(g10
S'\x1f\x85\xebQ\xb8\x1e\xd5?'
p934
tp935
Rp936
ag6
(g10
S'\xc3\xf5(\\\x8f\xc2\xd5?'
p937
tp938
Rp939
ag6
(g10
S'\xaeG\xe1z\x14\xae\xd7?'
p940
tp941
Rp942
ag6
(g10
S'ffffff\xd6?'
p943
tp944
Rp945
ag6
(g10
S'ffffff\xd6?'
p946
tp947
Rp948
ag6
(g10
S'\n\xd7\xa3p=\n\xd7?'
p949
tp950
Rp951
ag6
(g10
S'\x1f\x85\xebQ\xb8\x1e\xd5?'
p952
tp953
Rp954
ag6
(g10
S'\n\xd7\xa3p=\n\xd7?'
p955
tp956
Rp957
ag6
(g10
S'\xa4p=\n\xd7\xa3\xd0?'
p958
tp959
Rp960
ag6
(g10
S'\xe1z\x14\xaeG\xe1\xca?'
p961
tp962
Rp963
ag6
(g10
S'{\x14\xaeG\xe1z\xd4?'
p964
tp965
Rp966
ag6
(g10
S'\x1f\x85\xebQ\xb8\x1e\xd5?'
p967
tp968
Rp969
ag6
(g10
S'333333\xd3?'
p970
tp971
Rp972
ag6
(g10
S'333333\xd3?'
p973
tp974
Rp975
ag6
(g10
S'ffffff\xd6?'
p976
tp977
Rp978
ag6
(g10
S'\xc3\xf5(\\\x8f\xc2\xd5?'
p979
tp980
Rp981
ag6
(g10
S'\xc3\xf5(\\\x8f\xc2\xd5?'
p982
tp983
Rp984
ag6
(g10
S'ffffff\xd6?'
p985
tp986
Rp987
ag6
(g10
S'H\xe1z\x14\xaeG\xd1?'
p988
tp989
Rp990
ag6
(g10
S'333333\xd3?'
p991
tp992
Rp993
ag6
(g10
S'ffffff\xd6?'
p994
tp995
Rp996
ag6
(g10
S'\xc3\xf5(\\\x8f\xc2\xd5?'
p997
tp998
Rp999
ag6
(g10
S'\xc3\xf5(\\\x8f\xc2\xd5?'
p1000
tp1001
Rp1002
ag6
(g10
S'ffffff\xd6?'
p1003
tp1004
Rp1005
ag6
(g10
S'\x1f\x85\xebQ\xb8\x1e\xd5?'
p1006
tp1007
Rp1008
ag6
(g10
S'\xc3\xf5(\\\x8f\xc2\xd5?'
p1009
tp1010
Rp1011
ag6
(g10
S'\x1f\x85\xebQ\xb8\x1e\xd5?'
p1012
tp1013
Rp1014
aa(lp1015
g104
((lp1016
(lp1017
g107
aI100
aa(lp1018
g109
aI6
aa(lp1019
g111
aI15
aatp1020
Rp1021
ag104
((lp1022
(lp1023
g107
aI200
aa(lp1024
g109
aI3
aa(lp1025
g111
aI12
aatp1026
Rp1027
ag104
((lp1028
(lp1029
g107
aI50
aa(lp1030
g109
aI2
aa(lp1031
g111
aI13
aatp1032
Rp1033
ag104
((lp1034
(lp1035
g107
aI100
aa(lp1036
g109
aI2
aa(lp1037
g111
aI17
aatp1038
Rp1039
ag104
((lp1040
(lp1041
g107
aI50
aa(lp1042
g109
aI3
aa(lp1043
g111
aI5
aatp1044
Rp1045
ag104
((lp1046
(lp1047
g107
aI50
aa(lp1048
g109
aI4
aa(lp1049
g111
aI11
aatp1050
Rp1051
ag104
((lp1052
(lp1053
g107
aI50
aa(lp1054
g109
aI3
aa(lp1055
g111
aI20
aatp1056
Rp1057
ag104
((lp1058
(lp1059
g107
aI50
aa(lp1060
g109
aI1
aa(lp1061
g111
aI15
aatp1062
Rp1063
ag104
((lp1064
(lp1065
g107
aI200
aa(lp1066
g109
aI3
aa(lp1067
g111
aI5
aatp1068
Rp1069
ag104
((lp1070
(lp1071
g107
aI50
aa(lp1072
g109
aI4
aa(lp1073
g111
aI11
aatp1074
Rp1075
ag104
((lp1076
(lp1077
g107
aI50
aa(lp1078
g109
aI6
aa(lp1079
g111
aI17
aatp1080
Rp1081
ag104
((lp1082
(lp1083
g107
aI100
aa(lp1084
g109
aI1
aa(lp1085
g111
aI7
aatp1086
Rp1087
ag104
((lp1088
(lp1089
g107
aI50
aa(lp1090
g109
aI6
aa(lp1091
g111
aI12
aatp1092
Rp1093
ag104
((lp1094
(lp1095
g107
aI50
aa(lp1096
g109
aI3
aa(lp1097
g111
aI13
aatp1098
Rp1099
ag104
((lp1100
(lp1101
g107
aI50
aa(lp1102
g109
aI3
aa(lp1103
g111
aI13
aatp1104
Rp1105
ag104
((lp1106
(lp1107
g107
aI50
aa(lp1108
g109
aI3
aa(lp1109
g111
aI5
aatp1110
Rp1111
ag104
((lp1112
(lp1113
g107
aI50
aa(lp1114
g109
aI3
aa(lp1115
g111
aI5
aatp1116
Rp1117
ag104
((lp1118
(lp1119
g107
aI200
aa(lp1120
g109
aI6
aa(lp1121
g111
aI9
aatp1122
Rp1123
ag104
((lp1124
(lp1125
g107
aI50
aa(lp1126
g109
aI3
aa(lp1127
g111
aI5
aatp1128
Rp1129
ag104
((lp1130
(lp1131
g107
aI50
aa(lp1132
g109
aI6
aa(lp1133
g111
aI17
aatp1134
Rp1135
ag104
((lp1136
(lp1137
g107
aI100
aa(lp1138
g109
aI3
aa(lp1139
g111
aI10
aatp1140
Rp1141
ag104
((lp1142
(lp1143
g107
aI50
aa(lp1144
g109
aI5
aa(lp1145
g111
aI11
aatp1146
Rp1147
ag104
((lp1148
(lp1149
g107
aI50
aa(lp1150
g109
aI3
aa(lp1151
g111
aI5
aatp1152
Rp1153
ag104
((lp1154
(lp1155
g107
aI50
aa(lp1156
g109
aI5
aa(lp1157
g111
aI11
aatp1158
Rp1159
ag104
((lp1160
(lp1161
g107
aI200
aa(lp1162
g109
aI4
aa(lp1163
g111
aI10
aatp1164
Rp1165
ag104
((lp1166
(lp1167
g107
aI50
aa(lp1168
g109
aI3
aa(lp1169
g111
aI21
aatp1170
Rp1171
ag104
((lp1172
(lp1173
g107
aI200
aa(lp1174
g109
aI3
aa(lp1175
g111
aI20
aatp1176
Rp1177
ag104
((lp1178
(lp1179
g107
aI100
aa(lp1180
g109
aI1
aa(lp1181
g111
aI18
aatp1182
Rp1183
ag104
((lp1184
(lp1185
g107
aI50
aa(lp1186
g109
aI6
aa(lp1187
g111
aI17
aatp1188
Rp1189
ag104
((lp1190
(lp1191
g107
aI400
aa(lp1192
g109
aI4
aa(lp1193
g111
aI9
aatp1194
Rp1195
aaF220.5117061138153
asg288
(lp1196
(lp1197
F0.05
aF0.05
aF0.05
aF0.05
aF0.12
aF0.06
aF0.09
aF0.06
aF0.07
aF0.06
aF0.06
aF0.06
aF0.13
aF0.06
aF0.07
aF0.06
aF0.05
aF0.06
aF0.08
aF0.07
aF0.03
aF0.12
aF0.05
aF0.08
aF0.08
aF0.06
aF0.06
aF0.05
aF0.08
aF0.05
aa(lp1198
g104
((lp1199
(lp1200
g107
aI50
aa(lp1201
g109
aI6
aa(lp1202
g111
aI12
aatp1203
Rp1204
ag104
((lp1205
(lp1206
g107
aI50
aa(lp1207
g109
aI1
aa(lp1208
g111
aI14
aatp1209
Rp1210
ag104
((lp1211
(lp1212
g107
aI50
aa(lp1213
g109
aI3
aa(lp1214
g111
aI5
aatp1215
Rp1216
ag104
((lp1217
(lp1218
g107
aI50
aa(lp1219
g109
aI6
aa(lp1220
g111
aI15
aatp1221
Rp1222
ag104
((lp1223
(lp1224
g107
aI200
aa(lp1225
g109
aI4
aa(lp1226
g111
aI10
aatp1227
Rp1228
ag104
((lp1229
(lp1230
g107
aI100
aa(lp1231
g109
aI2
aa(lp1232
g111
aI8
aatp1233
Rp1234
ag104
((lp1235
(lp1236
g107
aI50
aa(lp1237
g109
aI3
aa(lp1238
g111
aI13
aatp1239
Rp1240
ag104
((lp1241
(lp1242
g107
aI100
aa(lp1243
g109
aI3
aa(lp1244
g111
aI13
aatp1245
Rp1246
ag104
((lp1247
(lp1248
g107
aI100
aa(lp1249
g109
aI3
aa(lp1250
g111
aI12
aatp1251
Rp1252
ag104
((lp1253
(lp1254
g107
aI50
aa(lp1255
g109
aI3
aa(lp1256
g111
aI5
aatp1257
Rp1258
ag104
((lp1259
(lp1260
g107
aI100
aa(lp1261
g109
aI4
aa(lp1262
g111
aI17
aatp1263
Rp1264
ag104
((lp1265
(lp1266
g107
aI200
aa(lp1267
g109
aI2
aa(lp1268
g111
aI12
aatp1269
Rp1270
ag104
((lp1271
(lp1272
g107
aI200
aa(lp1273
g109
aI4
aa(lp1274
g111
aI14
aatp1275
Rp1276
ag104
((lp1277
(lp1278
g107
aI50
aa(lp1279
g109
aI6
aa(lp1280
g111
aI14
aatp1281
Rp1282
ag104
((lp1283
(lp1284
g107
aI50
aa(lp1285
g109
aI3
aa(lp1286
g111
aI5
aatp1287
Rp1288
ag104
((lp1289
(lp1290
g107
aI50
aa(lp1291
g109
aI3
aa(lp1292
g111
aI13
aatp1293
Rp1294
ag104
((lp1295
(lp1296
g107
aI50
aa(lp1297
g109
aI6
aa(lp1298
g111
aI17
aatp1299
Rp1300
ag104
((lp1301
(lp1302
g107
aI50
aa(lp1303
g109
aI4
aa(lp1304
g111
aI11
aatp1305
Rp1306
ag104
((lp1307
(lp1308
g107
aI50
aa(lp1309
g109
aI6
aa(lp1310
g111
aI12
aatp1311
Rp1312
ag104
((lp1313
(lp1314
g107
aI50
aa(lp1315
g109
aI6
aa(lp1316
g111
aI14
aatp1317
Rp1318
ag104
((lp1319
(lp1320
g107
aI50
aa(lp1321
g109
aI3
aa(lp1322
g111
aI13
aatp1323
Rp1324
ag104
((lp1325
(lp1326
g107
aI400
aa(lp1327
g109
aI1
aa(lp1328
g111
aI12
aatp1329
Rp1330
ag104
((lp1331
(lp1332
g107
aI50
aa(lp1333
g109
aI6
aa(lp1334
g111
aI7
aatp1335
Rp1336
ag104
((lp1337
(lp1338
g107
aI50
aa(lp1339
g109
aI6
aa(lp1340
g111
aI12
aatp1341
Rp1342
ag104
((lp1343
(lp1344
g107
aI50
aa(lp1345
g109
aI6
aa(lp1346
g111
aI14
aatp1347
Rp1348
ag104
((lp1349
(lp1350
g107
aI50
aa(lp1351
g109
aI1
aa(lp1352
g111
aI14
aatp1353
Rp1354
ag104
((lp1355
(lp1356
g107
aI400
aa(lp1357
g109
aI1
aa(lp1358
g111
aI12
aatp1359
Rp1360
ag104
((lp1361
(lp1362
g107
aI50
aa(lp1363
g109
aI6
aa(lp1364
g111
aI17
aatp1365
Rp1366
ag104
((lp1367
(lp1368
g107
aI50
aa(lp1369
g109
aI3
aa(lp1370
g111
aI21
aatp1371
Rp1372
ag104
((lp1373
(lp1374
g107
aI50
aa(lp1375
g109
aI1
aa(lp1376
g111
aI14
aatp1377
Rp1378
aaF211.64848494529724
assS'RF'
p1379
(dp1380
g3
(lp1381
(lp1382
g6
(g10
S'\xa4p=\n\xd7\xa3\xe0?'
p1383
tp1384
Rp1385
ag6
(g10
S'\x9a\x99\x99\x99\x99\x99\xe1?'
p1386
tp1387
Rp1388
ag6
(g10
S'\xcd\xcc\xcc\xcc\xcc\xcc\xe4?'
p1389
tp1390
Rp1391
ag6
(g10
S'=\n\xd7\xa3p=\xe2?'
p1392
tp1393
Rp1394
ag6
(g10
S')\\\x8f\xc2\xf5(\xe4?'
p1395
tp1396
Rp1397
ag6
(g10
S'\x00\x00\x00\x00\x00\x00\xe0?'
p1398
tp1399
Rp1400
ag6
(g10
S'\xcd\xcc\xcc\xcc\xcc\xcc\xe4?'
p1401
tp1402
Rp1403
ag6
(g10
S'\x1f\x85\xebQ\xb8\x1e\xe5?'
p1404
tp1405
Rp1406
ag6
(g10
S'\xecQ\xb8\x1e\x85\xeb\xe1?'
p1407
tp1408
Rp1409
ag6
(g10
S'\xd7\xa3p=\n\xd7\xe3?'
p1410
tp1411
Rp1412
ag6
(g10
S'\x8f\xc2\xf5(\\\x8f\xe2?'
p1413
tp1414
Rp1415
ag6
(g10
S'\xcd\xcc\xcc\xcc\xcc\xcc\xe4?'
p1416
tp1417
Rp1418
ag6
(g10
S'\xd7\xa3p=\n\xd7\xe3?'
p1419
tp1420
Rp1421
ag6
(g10
S'H\xe1z\x14\xaeG\xe1?'
p1422
tp1423
Rp1424
ag6
(g10
S'{\x14\xaeG\xe1z\xe4?'
p1425
tp1426
Rp1427
ag6
(g10
S'\xe1z\x14\xaeG\xe1\xe2?'
p1428
tp1429
Rp1430
ag6
(g10
S'\xd7\xa3p=\n\xd7\xe3?'
p1431
tp1432
Rp1433
ag6
(g10
S'\x8f\xc2\xf5(\\\x8f\xe2?'
p1434
tp1435
Rp1436
ag6
(g10
S'\x1f\x85\xebQ\xb8\x1e\xe5?'
p1437
tp1438
Rp1439
ag6
(g10
S'q=\n\xd7\xa3p\xe5?'
p1440
tp1441
Rp1442
ag6
(g10
S'=\n\xd7\xa3p=\xe2?'
p1443
tp1444
Rp1445
ag6
(g10
S'\xd7\xa3p=\n\xd7\xe3?'
p1446
tp1447
Rp1448
ag6
(g10
S'\xd7\xa3p=\n\xd7\xe3?'
p1449
tp1450
Rp1451
ag6
(g10
S'\x85\xebQ\xb8\x1e\x85\xe3?'
p1452
tp1453
Rp1454
ag6
(g10
S'\x9a\x99\x99\x99\x99\x99\xe1?'
p1455
tp1456
Rp1457
ag6
(g10
S'\xf6(\\\x8f\xc2\xf5\xe0?'
p1458
tp1459
Rp1460
ag6
(g10
S'\xc3\xf5(\\\x8f\xc2\xe5?'
p1461
tp1462
Rp1463
ag6
(g10
S'{\x14\xaeG\xe1z\xe4?'
p1464
tp1465
Rp1466
ag6
(g10
S'\xe1z\x14\xaeG\xe1\xe2?'
p1467
tp1468
Rp1469
ag6
(g10
S'\xc3\xf5(\\\x8f\xc2\xe5?'
p1470
tp1471
Rp1472
aa(lp1473
g104
((lp1474
(lp1475
g107
aI50
aa(lp1476
g109
aI5
aa(lp1477
g111
aI19
aatp1478
Rp1479
ag104
((lp1480
(lp1481
g107
aI50
aa(lp1482
g109
aI6
aa(lp1483
g111
aI14
aatp1484
Rp1485
ag104
((lp1486
(lp1487
g107
aI50
aa(lp1488
g109
aI3
aa(lp1489
g111
aI13
aatp1490
Rp1491
ag104
((lp1492
(lp1493
g107
aI50
aa(lp1494
g109
aI3
aa(lp1495
g111
aI13
aatp1496
Rp1497
ag104
((lp1498
(lp1499
g107
aI50
aa(lp1500
g109
aI3
aa(lp1501
g111
aI13
aatp1502
Rp1503
ag104
((lp1504
(lp1505
g107
aI50
aa(lp1506
g109
aI2
aa(lp1507
g111
aI12
aatp1508
Rp1509
ag104
((lp1510
(lp1511
g107
aI50
aa(lp1512
g109
aI5
aa(lp1513
g111
aI11
aatp1514
Rp1515
ag104
((lp1516
(lp1517
g107
aI50
aa(lp1518
g109
aI6
aa(lp1519
g111
aI14
aatp1520
Rp1521
ag104
((lp1522
(lp1523
g107
aI50
aa(lp1524
g109
aI6
aa(lp1525
g111
aI12
aatp1526
Rp1527
ag104
((lp1528
(lp1529
g107
aI50
aa(lp1530
g109
aI3
aa(lp1531
g111
aI5
aatp1532
Rp1533
ag104
((lp1534
(lp1535
g107
aI50
aa(lp1536
g109
aI3
aa(lp1537
g111
aI5
aatp1538
Rp1539
ag104
((lp1540
(lp1541
g107
aI50
aa(lp1542
g109
aI6
aa(lp1543
g111
aI12
aatp1544
Rp1545
ag104
((lp1546
(lp1547
g107
aI50
aa(lp1548
g109
aI2
aa(lp1549
g111
aI7
aatp1550
Rp1551
ag104
((lp1552
(lp1553
g107
aI50
aa(lp1554
g109
aI3
aa(lp1555
g111
aI15
aatp1556
Rp1557
ag104
((lp1558
(lp1559
g107
aI50
aa(lp1560
g109
aI2
aa(lp1561
g111
aI19
aatp1562
Rp1563
ag104
((lp1564
(lp1565
g107
aI50
aa(lp1566
g109
aI1
aa(lp1567
g111
aI19
aatp1568
Rp1569
ag104
((lp1570
(lp1571
g107
aI50
aa(lp1572
g109
aI5
aa(lp1573
g111
aI11
aatp1574
Rp1575
ag104
((lp1576
(lp1577
g107
aI50
aa(lp1578
g109
aI3
aa(lp1579
g111
aI15
aatp1580
Rp1581
ag104
((lp1582
(lp1583
g107
aI50
aa(lp1584
g109
aI6
aa(lp1585
g111
aI12
aatp1586
Rp1587
ag104
((lp1588
(lp1589
g107
aI50
aa(lp1590
g109
aI3
aa(lp1591
g111
aI5
aatp1592
Rp1593
ag104
((lp1594
(lp1595
g107
aI50
aa(lp1596
g109
aI3
aa(lp1597
g111
aI13
aatp1598
Rp1599
ag104
((lp1600
(lp1601
g107
aI50
aa(lp1602
g109
aI6
aa(lp1603
g111
aI17
aatp1604
Rp1605
ag104
((lp1606
(lp1607
g107
aI50
aa(lp1608
g109
aI3
aa(lp1609
g111
aI15
aatp1610
Rp1611
ag104
((lp1612
(lp1613
g107
aI50
aa(lp1614
g109
aI4
aa(lp1615
g111
aI6
aatp1616
Rp1617
ag104
((lp1618
(lp1619
g107
aI50
aa(lp1620
g109
aI1
aa(lp1621
g111
aI19
aatp1622
Rp1623
ag104
((lp1624
(lp1625
g107
aI50
aa(lp1626
g109
aI3
aa(lp1627
g111
aI13
aatp1628
Rp1629
ag104
((lp1630
(lp1631
g107
aI50
aa(lp1632
g109
aI5
aa(lp1633
g111
aI17
aatp1634
Rp1635
ag104
((lp1636
(lp1637
g107
aI50
aa(lp1638
g109
aI6
aa(lp1639
g111
aI12
aatp1640
Rp1641
ag104
((lp1642
(lp1643
g107
aI50
aa(lp1644
g109
aI3
aa(lp1645
g111
aI13
aatp1646
Rp1647
ag104
((lp1648
(lp1649
g107
aI50
aa(lp1650
g109
aI3
aa(lp1651
g111
aI6
aatp1652
Rp1653
aaF440.93426990509033
asg288
(lp1654
(lp1655
F0.42
aF0.03
aF0.04
aF0.07
aF0.07
aF0.05
aF0.04
aF0.05
aF0.03
aF0.08
aF0.06
aF0.06
aF0.05
aF0.05
aF0.09
aF0.02
aF0.05
aF0.05
aF0.03
aF0.06
aF0.11
aF0.05
aF0.08
aF0.0
aF0.09
aF0.1
aF0.06
aF0.41
aF0.04
aF0.02
aa(lp1656
g104
((lp1657
(lp1658
g107
aI100
aa(lp1659
g109
aI4
aa(lp1660
g111
aI17
aatp1661
Rp1662
ag104
((lp1663
(lp1664
g107
aI50
aa(lp1665
g109
aI3
aa(lp1666
g111
aI20
aatp1667
Rp1668
ag104
((lp1669
(lp1670
g107
aI100
aa(lp1671
g109
aI1
aa(lp1672
g111
aI16
aatp1673
Rp1674
ag104
((lp1675
(lp1676
g107
aI200
aa(lp1677
g109
aI6
aa(lp1678
g111
aI17
aatp1679
Rp1680
ag104
((lp1681
(lp1682
g107
aI200
aa(lp1683
g109
aI5
aa(lp1684
g111
aI5
aatp1685
Rp1686
ag104
((lp1687
(lp1688
g107
aI200
aa(lp1689
g109
aI1
aa(lp1690
g111
aI17
aatp1691
Rp1692
ag104
((lp1693
(lp1694
g107
aI100
aa(lp1695
g109
aI5
aa(lp1696
g111
aI9
aatp1697
Rp1698
ag104
((lp1699
(lp1700
g107
aI200
aa(lp1701
g109
aI2
aa(lp1702
g111
aI12
aatp1703
Rp1704
ag104
((lp1705
(lp1706
g107
aI50
aa(lp1707
g109
aI3
aa(lp1708
g111
aI5
aatp1709
Rp1710
ag104
((lp1711
(lp1712
g107
aI400
aa(lp1713
g109
aI6
aa(lp1714
g111
aI19
aatp1715
Rp1716
ag104
((lp1717
(lp1718
g107
aI200
aa(lp1719
g109
aI3
aa(lp1720
g111
aI5
aatp1721
Rp1722
ag104
((lp1723
(lp1724
g107
aI200
aa(lp1725
g109
aI2
aa(lp1726
g111
aI21
aatp1727
Rp1728
ag104
((lp1729
(lp1730
g107
aI200
aa(lp1731
g109
aI6
aa(lp1732
g111
aI11
aatp1733
Rp1734
ag104
((lp1735
(lp1736
g107
aI200
aa(lp1737
g109
aI2
aa(lp1738
g111
aI21
aatp1739
Rp1740
ag104
((lp1741
(lp1742
g107
aI400
aa(lp1743
g109
aI1
aa(lp1744
g111
aI5
aatp1745
Rp1746
ag104
((lp1747
(lp1748
g107
aI50
aa(lp1749
g109
aI5
aa(lp1750
g111
aI11
aatp1751
Rp1752
ag104
((lp1753
(lp1754
g107
aI200
aa(lp1755
g109
aI6
aa(lp1756
g111
aI9
aatp1757
Rp1758
ag104
((lp1759
(lp1760
g107
aI200
aa(lp1761
g109
aI5
aa(lp1762
g111
aI13
aatp1763
Rp1764
ag104
((lp1765
(lp1766
g107
aI100
aa(lp1767
g109
aI1
aa(lp1768
g111
aI6
aatp1769
Rp1770
ag104
((lp1771
(lp1772
g107
aI200
aa(lp1773
g109
aI5
aa(lp1774
g111
aI18
aatp1775
Rp1776
ag104
((lp1777
(lp1778
g107
aI400
aa(lp1779
g109
aI1
aa(lp1780
g111
aI5
aatp1781
Rp1782
ag104
((lp1783
(lp1784
g107
aI200
aa(lp1785
g109
aI4
aa(lp1786
g111
aI10
aatp1787
Rp1788
ag104
((lp1789
(lp1790
g107
aI400
aa(lp1791
g109
aI3
aa(lp1792
g111
aI16
aatp1793
Rp1794
ag104
((lp1795
(lp1796
g107
aI200
aa(lp1797
g109
aI3
aa(lp1798
g111
aI16
aatp1799
Rp1800
ag104
((lp1801
(lp1802
g107
aI400
aa(lp1803
g109
aI1
aa(lp1804
g111
aI5
aatp1805
Rp1806
ag104
((lp1807
(lp1808
g107
aI400
aa(lp1809
g109
aI1
aa(lp1810
g111
aI5
aatp1811
Rp1812
ag104
((lp1813
(lp1814
g107
aI200
aa(lp1815
g109
aI5
aa(lp1816
g111
aI19
aatp1817
Rp1818
ag104
((lp1819
(lp1820
g107
aI50
aa(lp1821
g109
aI6
aa(lp1822
g111
aI12
aatp1823
Rp1824
ag104
((lp1825
(lp1826
g107
aI100
aa(lp1827
g109
aI6
aa(lp1828
g111
aI14
aatp1829
Rp1830
ag104
((lp1831
(lp1832
g107
aI50
aa(lp1833
g109
aI6
aa(lp1834
g111
aI7
aatp1835
Rp1836
aaF344.9617829322815
assS'LR'
p1837
(dp1838
g3
(lp1839
(lp1840
g6
(g10
S'\xa4p=\n\xd7\xa3\xe8?'
p1841
tp1842
Rp1843
ag6
(g10
S'\xf6(\\\x8f\xc2\xf5\xe8?'
p1844
tp1845
Rp1846
ag6
(g10
S'\n\xd7\xa3p=\n\xe7?'
p1847
tp1848
Rp1849
ag6
(g10
S'\xc3\xf5(\\\x8f\xc2\xe5?'
p1850
tp1851
Rp1852
ag6
(g10
S'\x9a\x99\x99\x99\x99\x99\xe9?'
p1853
tp1854
Rp1855
ag6
(g10
S'q=\n\xd7\xa3p\xe5?'
p1856
tp1857
Rp1858
ag6
(g10
S'ffffff\xe6?'
p1859
tp1860
Rp1861
ag6
(g10
S'333333\xeb?'
p1862
tp1863
Rp1864
ag6
(g10
S'\xa4p=\n\xd7\xa3\xe8?'
p1865
tp1866
Rp1867
ag6
(g10
S'{\x14\xaeG\xe1z\xe4?'
p1868
tp1869
Rp1870
ag6
(g10
S'R\xb8\x1e\x85\xebQ\xe8?'
p1871
tp1872
Rp1873
ag6
(g10
S'\xd7\xa3p=\n\xd7\xe3?'
p1874
tp1875
Rp1876
ag6
(g10
S'ffffff\xe6?'
p1877
tp1878
Rp1879
ag6
(g10
S'\x9a\x99\x99\x99\x99\x99\xe9?'
p1880
tp1881
Rp1882
ag6
(g10
S'\xe1z\x14\xaeG\xe1\xe2?'
p1883
tp1884
Rp1885
ag6
(g10
S'H\xe1z\x14\xaeG\xe9?'
p1886
tp1887
Rp1888
ag6
(g10
S'\x85\xebQ\xb8\x1e\x85\xe3?'
p1889
tp1890
Rp1891
ag6
(g10
S'R\xb8\x1e\x85\xebQ\xe8?'
p1892
tp1893
Rp1894
ag6
(g10
S'\x00\x00\x00\x00\x00\x00\xe8?'
p1895
tp1896
Rp1897
ag6
(g10
S'\\\x8f\xc2\xf5(\\\xe7?'
p1898
tp1899
Rp1900
ag6
(g10
S'\x00\x00\x00\x00\x00\x00\xe8?'
p1901
tp1902
Rp1903
ag6
(g10
S'\x14\xaeG\xe1z\x14\xe6?'
p1904
tp1905
Rp1906
ag6
(g10
S'\x00\x00\x00\x00\x00\x00\xe8?'
p1907
tp1908
Rp1909
ag6
(g10
S'ffffff\xe6?'
p1910
tp1911
Rp1912
ag6
(g10
S'\xa4p=\n\xd7\xa3\xe8?'
p1913
tp1914
Rp1915
ag6
(g10
S'\xf6(\\\x8f\xc2\xf5\xe8?'
p1916
tp1917
Rp1918
ag6
(g10
S'R\xb8\x1e\x85\xebQ\xe8?'
p1919
tp1920
Rp1921
ag6
(g10
S'\xc3\xf5(\\\x8f\xc2\xe5?'
p1922
tp1923
Rp1924
ag6
(g10
S'\xaeG\xe1z\x14\xae\xe7?'
p1925
tp1926
Rp1927
ag6
(g10
S'=\n\xd7\xa3p=\xea?'
p1928
tp1929
Rp1930
aa(lp1931
g104
((lp1932
(lp1933
g107
aI50
aa(lp1934
g109
aI5
aa(lp1935
g111
aI11
aatp1936
Rp1937
ag104
((lp1938
(lp1939
g107
aI50
aa(lp1940
g109
aI4
aa(lp1941
g111
aI11
aatp1942
Rp1943
ag104
((lp1944
(lp1945
g107
aI50
aa(lp1946
g109
aI2
aa(lp1947
g111
aI21
aatp1948
Rp1949
ag104
((lp1950
(lp1951
g107
aI50
aa(lp1952
g109
aI3
aa(lp1953
g111
aI5
aatp1954
Rp1955
ag104
((lp1956
(lp1957
g107
aI50
aa(lp1958
g109
aI3
aa(lp1959
g111
aI13
aatp1960
Rp1961
ag104
((lp1962
(lp1963
g107
aI50
aa(lp1964
g109
aI3
aa(lp1965
g111
aI5
aatp1966
Rp1967
ag104
((lp1968
(lp1969
g107
aI50
aa(lp1970
g109
aI1
aa(lp1971
g111
aI19
aatp1972
Rp1973
ag104
((lp1974
(lp1975
g107
aI50
aa(lp1976
g109
aI3
aa(lp1977
g111
aI13
aatp1978
Rp1979
ag104
((lp1980
(lp1981
g107
aI50
aa(lp1982
g109
aI6
aa(lp1983
g111
aI17
aatp1984
Rp1985
ag104
((lp1986
(lp1987
g107
aI50
aa(lp1988
g109
aI3
aa(lp1989
g111
aI15
aatp1990
Rp1991
ag104
((lp1992
(lp1993
g107
aI50
aa(lp1994
g109
aI6
aa(lp1995
g111
aI12
aatp1996
Rp1997
ag104
((lp1998
(lp1999
g107
aI50
aa(lp2000
g109
aI3
aa(lp2001
g111
aI13
aatp2002
Rp2003
ag104
((lp2004
(lp2005
g107
aI50
aa(lp2006
g109
aI3
aa(lp2007
g111
aI5
aatp2008
Rp2009
ag104
((lp2010
(lp2011
g107
aI50
aa(lp2012
g109
aI5
aa(lp2013
g111
aI11
aatp2014
Rp2015
ag104
((lp2016
(lp2017
g107
aI50
aa(lp2018
g109
aI2
aa(lp2019
g111
aI8
aatp2020
Rp2021
ag104
((lp2022
(lp2023
g107
aI50
aa(lp2024
g109
aI5
aa(lp2025
g111
aI11
aatp2026
Rp2027
ag104
((lp2028
(lp2029
g107
aI50
aa(lp2030
g109
aI5
aa(lp2031
g111
aI11
aatp2032
Rp2033
ag104
((lp2034
(lp2035
g107
aI50
aa(lp2036
g109
aI2
aa(lp2037
g111
aI13
aatp2038
Rp2039
ag104
((lp2040
(lp2041
g107
aI50
aa(lp2042
g109
aI3
aa(lp2043
g111
aI15
aatp2044
Rp2045
ag104
((lp2046
(lp2047
g107
aI50
aa(lp2048
g109
aI6
aa(lp2049
g111
aI12
aatp2050
Rp2051
ag104
((lp2052
(lp2053
g107
aI50
aa(lp2054
g109
aI2
aa(lp2055
g111
aI21
aatp2056
Rp2057
ag104
((lp2058
(lp2059
g107
aI50
aa(lp2060
g109
aI5
aa(lp2061
g111
aI17
aatp2062
Rp2063
ag104
((lp2064
(lp2065
g107
aI50
aa(lp2066
g109
aI2
aa(lp2067
g111
aI21
aatp2068
Rp2069
ag104
((lp2070
(lp2071
g107
aI50
aa(lp2072
g109
aI3
aa(lp2073
g111
aI13
aatp2074
Rp2075
ag104
((lp2076
(lp2077
g107
aI50
aa(lp2078
g109
aI2
aa(lp2079
g111
aI21
aatp2080
Rp2081
ag104
((lp2082
(lp2083
g107
aI50
aa(lp2084
g109
aI5
aa(lp2085
g111
aI11
aatp2086
Rp2087
ag104
((lp2088
(lp2089
g107
aI50
aa(lp2090
g109
aI3
aa(lp2091
g111
aI15
aatp2092
Rp2093
ag104
((lp2094
(lp2095
g107
aI50
aa(lp2096
g109
aI2
aa(lp2097
g111
aI8
aatp2098
Rp2099
ag104
((lp2100
(lp2101
g107
aI50
aa(lp2102
g109
aI6
aa(lp2103
g111
aI17
aatp2104
Rp2105
ag104
((lp2106
(lp2107
g107
aI50
aa(lp2108
g109
aI2
aa(lp2109
g111
aI21
aatp2110
Rp2111
aaF322.0680630207062
asg288
(lp2112
(lp2113
F0.02
aF0.02
aF0.02
aF0.03
aF0.03
aF0.02
aF0.02
aF0.02
aF0.4
aF0.02
aF0.02
aF0.03
aF0.02
aF0.04
aF0.03
aF0.04
aF0.02
aF0.03
aF0.02
aF0.02
aF0.02
aF0.05
aF0.02
aF0.02
aF0.04
aF0.04
aF0.39
aF0.05
aF0.05
aF0.01
aa(lp2114
g104
((lp2115
(lp2116
g107
aI50
aa(lp2117
g109
aI3
aa(lp2118
g111
aI5
aatp2119
Rp2120
ag104
((lp2121
(lp2122
g107
aI100
aa(lp2123
g109
aI3
aa(lp2124
g111
aI19
aatp2125
Rp2126
ag104
((lp2127
(lp2128
g107
aI50
aa(lp2129
g109
aI6
aa(lp2130
g111
aI17
aatp2131
Rp2132
ag104
((lp2133
(lp2134
g107
aI100
aa(lp2135
g109
aI3
aa(lp2136
g111
aI13
aatp2137
Rp2138
ag104
((lp2139
(lp2140
g107
aI200
aa(lp2141
g109
aI6
aa(lp2142
g111
aI11
aatp2143
Rp2144
ag104
((lp2145
(lp2146
g107
aI100
aa(lp2147
g109
aI4
aa(lp2148
g111
aI17
aatp2149
Rp2150
ag104
((lp2151
(lp2152
g107
aI50
aa(lp2153
g109
aI3
aa(lp2154
g111
aI5
aatp2155
Rp2156
ag104
((lp2157
(lp2158
g107
aI50
aa(lp2159
g109
aI3
aa(lp2160
g111
aI13
aatp2161
Rp2162
ag104
((lp2163
(lp2164
g107
aI50
aa(lp2165
g109
aI3
aa(lp2166
g111
aI5
aatp2167
Rp2168
ag104
((lp2169
(lp2170
g107
aI50
aa(lp2171
g109
aI3
aa(lp2172
g111
aI13
aatp2173
Rp2174
ag104
((lp2175
(lp2176
g107
aI50
aa(lp2177
g109
aI5
aa(lp2178
g111
aI11
aatp2179
Rp2180
ag104
((lp2181
(lp2182
g107
aI100
aa(lp2183
g109
aI6
aa(lp2184
g111
aI14
aatp2185
Rp2186
ag104
((lp2187
(lp2188
g107
aI50
aa(lp2189
g109
aI6
aa(lp2190
g111
aI14
aatp2191
Rp2192
ag104
((lp2193
(lp2194
g107
aI400
aa(lp2195
g109
aI1
aa(lp2196
g111
aI12
aatp2197
Rp2198
ag104
((lp2199
(lp2200
g107
aI100
aa(lp2201
g109
aI2
aa(lp2202
g111
aI19
aatp2203
Rp2204
ag104
((lp2205
(lp2206
g107
aI200
aa(lp2207
g109
aI5
aa(lp2208
g111
aI14
aatp2209
Rp2210
ag104
((lp2211
(lp2212
g107
aI50
aa(lp2213
g109
aI3
aa(lp2214
g111
aI6
aatp2215
Rp2216
ag104
((lp2217
(lp2218
g107
aI200
aa(lp2219
g109
aI3
aa(lp2220
g111
aI5
aatp2221
Rp2222
ag104
((lp2223
(lp2224
g107
aI100
aa(lp2225
g109
aI3
aa(lp2226
g111
aI13
aatp2227
Rp2228
ag104
((lp2229
(lp2230
g107
aI50
aa(lp2231
g109
aI4
aa(lp2232
g111
aI16
aatp2233
Rp2234
ag104
((lp2235
(lp2236
g107
aI50
aa(lp2237
g109
aI6
aa(lp2238
g111
aI12
aatp2239
Rp2240
ag104
((lp2241
(lp2242
g107
aI400
aa(lp2243
g109
aI1
aa(lp2244
g111
aI5
aatp2245
Rp2246
ag104
((lp2247
(lp2248
g107
aI100
aa(lp2249
g109
aI4
aa(lp2250
g111
aI17
aatp2251
Rp2252
ag104
((lp2253
(lp2254
g107
aI50
aa(lp2255
g109
aI6
aa(lp2256
g111
aI8
aatp2257
Rp2258
ag104
((lp2259
(lp2260
g107
aI400
aa(lp2261
g109
aI1
aa(lp2262
g111
aI12
aatp2263
Rp2264
ag104
((lp2265
(lp2266
g107
aI400
aa(lp2267
g109
aI1
aa(lp2268
g111
aI5
aatp2269
Rp2270
ag104
((lp2271
(lp2272
g107
aI50
aa(lp2273
g109
aI3
aa(lp2274
g111
aI15
aatp2275
Rp2276
ag104
((lp2277
(lp2278
g107
aI400
aa(lp2279
g109
aI1
aa(lp2280
g111
aI5
aatp2281
Rp2282
ag104
((lp2283
(lp2284
g107
aI400
aa(lp2285
g109
aI3
aa(lp2286
g111
aI16
aatp2287
Rp2288
ag104
((lp2289
(lp2290
g107
aI50
aa(lp2291
g109
aI5
aa(lp2292
g111
aI11
aatp2293
Rp2294
aaF298.89274191856384
assS'DT'
p2295
(dp2296
g3
(lp2297
(lp2298
g6
(g10
S'\x8f\xc2\xf5(\\\x8f\xe2?'
p2299
tp2300
Rp2301
ag6
(g10
S'\x14\xaeG\xe1z\x14\xde?'
p2302
tp2303
Rp2304
ag6
(g10
S'H\xe1z\x14\xaeG\xe1?'
p2305
tp2306
Rp2307
ag6
(g10
S'\x9a\x99\x99\x99\x99\x99\xe1?'
p2308
tp2309
Rp2310
ag6
(g10
S'333333\xe3?'
p2311
tp2312
Rp2313
ag6
(g10
S'\xcd\xcc\xcc\xcc\xcc\xcc\xdc?'
p2314
tp2315
Rp2316
ag6
(g10
S'R\xb8\x1e\x85\xebQ\xe0?'
p2317
tp2318
Rp2319
ag6
(g10
S'q=\n\xd7\xa3p\xdd?'
p2320
tp2321
Rp2322
ag6
(g10
S')\\\x8f\xc2\xf5(\xdc?'
p2323
tp2324
Rp2325
ag6
(g10
S'\x9a\x99\x99\x99\x99\x99\xe1?'
p2326
tp2327
Rp2328
ag6
(g10
S'q=\n\xd7\xa3p\xdd?'
p2329
tp2330
Rp2331
ag6
(g10
S'=\n\xd7\xa3p=\xe2?'
p2332
tp2333
Rp2334
ag6
(g10
S'q=\n\xd7\xa3p\xdd?'
p2335
tp2336
Rp2337
ag6
(g10
S'\\\x8f\xc2\xf5(\\\xdf?'
p2338
tp2339
Rp2340
ag6
(g10
S'\x9a\x99\x99\x99\x99\x99\xe1?'
p2341
tp2342
Rp2343
ag6
(g10
S'\xa4p=\n\xd7\xa3\xe8?'
p2344
tp2345
Rp2346
ag6
(g10
S'333333\xe3?'
p2347
tp2348
Rp2349
ag6
(g10
S'q=\n\xd7\xa3p\xdd?'
p2350
tp2351
Rp2352
ag6
(g10
S'\xe1z\x14\xaeG\xe1\xda?'
p2353
tp2354
Rp2355
ag6
(g10
S'{\x14\xaeG\xe1z\xe4?'
p2356
tp2357
Rp2358
ag6
(g10
S'\x9a\x99\x99\x99\x99\x99\xd9?'
p2359
tp2360
Rp2361
ag6
(g10
S'\xd7\xa3p=\n\xd7\xe3?'
p2362
tp2363
Rp2364
ag6
(g10
S'\x85\xebQ\xb8\x1e\x85\xe3?'
p2365
tp2366
Rp2367
ag6
(g10
S'q=\n\xd7\xa3p\xdd?'
p2368
tp2369
Rp2370
ag6
(g10
S'\xb8\x1e\x85\xebQ\xb8\xde?'
p2371
tp2372
Rp2373
ag6
(g10
S'\xf6(\\\x8f\xc2\xf5\xe0?'
p2374
tp2375
Rp2376
ag6
(g10
S'q=\n\xd7\xa3p\xdd?'
p2377
tp2378
Rp2379
ag6
(g10
S'\xa4p=\n\xd7\xa3\xe0?'
p2380
tp2381
Rp2382
ag6
(g10
S'\xb8\x1e\x85\xebQ\xb8\xde?'
p2383
tp2384
Rp2385
ag6
(g10
S')\\\x8f\xc2\xf5(\xe4?'
p2386
tp2387
Rp2388
aa(lp2389
g104
((lp2390
(lp2391
g107
aI50
aa(lp2392
g109
aI5
aa(lp2393
g111
aI11
aatp2394
Rp2395
ag104
((lp2396
(lp2397
g107
aI50
aa(lp2398
g109
aI3
aa(lp2399
g111
aI5
aatp2400
Rp2401
ag104
((lp2402
(lp2403
g107
aI50
aa(lp2404
g109
aI6
aa(lp2405
g111
aI12
aatp2406
Rp2407
ag104
((lp2408
(lp2409
g107
aI50
aa(lp2410
g109
aI3
aa(lp2411
g111
aI5
aatp2412
Rp2413
ag104
((lp2414
(lp2415
g107
aI50
aa(lp2416
g109
aI3
aa(lp2417
g111
aI13
aatp2418
Rp2419
ag104
((lp2420
(lp2421
g107
aI50
aa(lp2422
g109
aI3
aa(lp2423
g111
aI15
aatp2424
Rp2425
ag104
((lp2426
(lp2427
g107
aI50
aa(lp2428
g109
aI2
aa(lp2429
g111
aI21
aatp2430
Rp2431
ag104
((lp2432
(lp2433
g107
aI50
aa(lp2434
g109
aI1
aa(lp2435
g111
aI19
aatp2436
Rp2437
ag104
((lp2438
(lp2439
g107
aI50
aa(lp2440
g109
aI2
aa(lp2441
g111
aI13
aatp2442
Rp2443
ag104
((lp2444
(lp2445
g107
aI50
aa(lp2446
g109
aI2
aa(lp2447
g111
aI11
aatp2448
Rp2449
ag104
((lp2450
(lp2451
g107
aI50
aa(lp2452
g109
aI6
aa(lp2453
g111
aI12
aatp2454
Rp2455
ag104
((lp2456
(lp2457
g107
aI50
aa(lp2458
g109
aI6
aa(lp2459
g111
aI12
aatp2460
Rp2461
ag104
((lp2462
(lp2463
g107
aI50
aa(lp2464
g109
aI3
aa(lp2465
g111
aI15
aatp2466
Rp2467
ag104
((lp2468
(lp2469
g107
aI50
aa(lp2470
g109
aI2
aa(lp2471
g111
aI13
aatp2472
Rp2473
ag104
((lp2474
(lp2475
g107
aI50
aa(lp2476
g109
aI6
aa(lp2477
g111
aI12
aatp2478
Rp2479
ag104
((lp2480
(lp2481
g107
aI50
aa(lp2482
g109
aI2
aa(lp2483
g111
aI21
aatp2484
Rp2485
ag104
((lp2486
(lp2487
g107
aI50
aa(lp2488
g109
aI4
aa(lp2489
g111
aI10
aatp2490
Rp2491
ag104
((lp2492
(lp2493
g107
aI50
aa(lp2494
g109
aI6
aa(lp2495
g111
aI8
aatp2496
Rp2497
ag104
((lp2498
(lp2499
g107
aI50
aa(lp2500
g109
aI3
aa(lp2501
g111
aI20
aatp2502
Rp2503
ag104
((lp2504
(lp2505
g107
aI50
aa(lp2506
g109
aI4
aa(lp2507
g111
aI18
aatp2508
Rp2509
ag104
((lp2510
(lp2511
g107
aI50
aa(lp2512
g109
aI3
aa(lp2513
g111
aI13
aatp2514
Rp2515
ag104
((lp2516
(lp2517
g107
aI50
aa(lp2518
g109
aI4
aa(lp2519
g111
aI18
aatp2520
Rp2521
ag104
((lp2522
(lp2523
g107
aI50
aa(lp2524
g109
aI6
aa(lp2525
g111
aI20
aatp2526
Rp2527
ag104
((lp2528
(lp2529
g107
aI50
aa(lp2530
g109
aI3
aa(lp2531
g111
aI5
aatp2532
Rp2533
ag104
((lp2534
(lp2535
g107
aI50
aa(lp2536
g109
aI1
aa(lp2537
g111
aI19
aatp2538
Rp2539
ag104
((lp2540
(lp2541
g107
aI50
aa(lp2542
g109
aI6
aa(lp2543
g111
aI14
aatp2544
Rp2545
ag104
((lp2546
(lp2547
g107
aI50
aa(lp2548
g109
aI5
aa(lp2549
g111
aI11
aatp2550
Rp2551
ag104
((lp2552
(lp2553
g107
aI50
aa(lp2554
g109
aI5
aa(lp2555
g111
aI11
aatp2556
Rp2557
ag104
((lp2558
(lp2559
g107
aI50
aa(lp2560
g109
aI6
aa(lp2561
g111
aI17
aatp2562
Rp2563
ag104
((lp2564
(lp2565
g107
aI50
aa(lp2566
g109
aI3
aa(lp2567
g111
aI5
aatp2568
Rp2569
aaF302.56582403182983
asg288
(lp2570
(lp2571
F0.4
aF0.05
aF0.43
aF0.09
aF0.1
aF0.42
aF0.38
aF0.06
aF0.03
aF0.0
aF0.03
aF0.11
aF0.04
aF0.47
aF0.06
aF0.03
aF0.02
aF0.45
aF0.41
aF0.01
aF0.41
aF0.05
aF0.44
aF0.39
aF0.43
aF0.45
aF0.39
aF0.46
aF0.46
aF0.4
aa(lp2572
g104
((lp2573
(lp2574
g107
aI400
aa(lp2575
g109
aI1
aa(lp2576
g111
aI12
aatp2577
Rp2578
ag104
((lp2579
(lp2580
g107
aI200
aa(lp2581
g109
aI3
aa(lp2582
g111
aI5
aatp2583
Rp2584
ag104
((lp2585
(lp2586
g107
aI200
aa(lp2587
g109
aI3
aa(lp2588
g111
aI11
aatp2589
Rp2590
ag104
((lp2591
(lp2592
g107
aI400
aa(lp2593
g109
aI4
aa(lp2594
g111
aI16
aatp2595
Rp2596
ag104
((lp2597
(lp2598
g107
aI400
aa(lp2599
g109
aI2
aa(lp2600
g111
aI19
aatp2601
Rp2602
ag104
((lp2603
(lp2604
g107
aI200
aa(lp2605
g109
aI6
aa(lp2606
g111
aI11
aatp2607
Rp2608
ag104
((lp2609
(lp2610
g107
aI200
aa(lp2611
g109
aI6
aa(lp2612
g111
aI18
aatp2613
Rp2614
ag104
((lp2615
(lp2616
g107
aI200
aa(lp2617
g109
aI3
aa(lp2618
g111
aI11
aatp2619
Rp2620
ag104
((lp2621
(lp2622
g107
aI400
aa(lp2623
g109
aI1
aa(lp2624
g111
aI12
aatp2625
Rp2626
ag104
((lp2627
(lp2628
g107
aI100
aa(lp2629
g109
aI2
aa(lp2630
g111
aI5
aatp2631
Rp2632
ag104
((lp2633
(lp2634
g107
aI50
aa(lp2635
g109
aI1
aa(lp2636
g111
aI15
aatp2637
Rp2638
ag104
((lp2639
(lp2640
g107
aI400
aa(lp2641
g109
aI4
aa(lp2642
g111
aI12
aatp2643
Rp2644
ag104
((lp2645
(lp2646
g107
aI50
aa(lp2647
g109
aI6
aa(lp2648
g111
aI17
aatp2649
Rp2650
ag104
((lp2651
(lp2652
g107
aI400
aa(lp2653
g109
aI2
aa(lp2654
g111
aI5
aatp2655
Rp2656
ag104
((lp2657
(lp2658
g107
aI200
aa(lp2659
g109
aI2
aa(lp2660
g111
aI21
aatp2661
Rp2662
ag104
((lp2663
(lp2664
g107
aI50
aa(lp2665
g109
aI3
aa(lp2666
g111
aI13
aatp2667
Rp2668
ag104
((lp2669
(lp2670
g107
aI200
aa(lp2671
g109
aI3
aa(lp2672
g111
aI5
aatp2673
Rp2674
ag104
((lp2675
(lp2676
g107
aI400
aa(lp2677
g109
aI1
aa(lp2678
g111
aI15
aatp2679
Rp2680
ag104
((lp2681
(lp2682
g107
aI50
aa(lp2683
g109
aI2
aa(lp2684
g111
aI20
aatp2685
Rp2686
ag104
((lp2687
(lp2688
g107
aI200
aa(lp2689
g109
aI2
aa(lp2690
g111
aI21
aatp2691
Rp2692
ag104
((lp2693
(lp2694
g107
aI50
aa(lp2695
g109
aI3
aa(lp2696
g111
aI13
aatp2697
Rp2698
ag104
((lp2699
(lp2700
g107
aI200
aa(lp2701
g109
aI2
aa(lp2702
g111
aI21
aatp2703
Rp2704
ag104
((lp2705
(lp2706
g107
aI200
aa(lp2707
g109
aI6
aa(lp2708
g111
aI11
aatp2709
Rp2710
ag104
((lp2711
(lp2712
g107
aI200
aa(lp2713
g109
aI5
aa(lp2714
g111
aI6
aatp2715
Rp2716
ag104
((lp2717
(lp2718
g107
aI200
aa(lp2719
g109
aI2
aa(lp2720
g111
aI17
aatp2721
Rp2722
ag104
((lp2723
(lp2724
g107
aI200
aa(lp2725
g109
aI1
aa(lp2726
g111
aI14
aatp2727
Rp2728
ag104
((lp2729
(lp2730
g107
aI200
aa(lp2731
g109
aI6
aa(lp2732
g111
aI11
aatp2733
Rp2734
ag104
((lp2735
(lp2736
g107
aI400
aa(lp2737
g109
aI3
aa(lp2738
g111
aI16
aatp2739
Rp2740
ag104
((lp2741
(lp2742
g107
aI200
aa(lp2743
g109
aI3
aa(lp2744
g111
aI11
aatp2745
Rp2746
ag104
((lp2747
(lp2748
g107
aI400
aa(lp2749
g109
aI2
aa(lp2750
g111
aI5
aatp2751
Rp2752
aaF266.9963607788086
ass.