(dp0
S'KNN'
p1
(dp2
S'd2h'
p3
(lp4
(lp5
cnumpy.core.multiarray
scalar
p6
(cnumpy
dtype
p7
(S'f8'
p8
I0
I1
tp9
Rp10
(I3
S'<'
p11
NNNI-1
I-1
I0
tp12
bS')\\\x8f\xc2\xf5(\xe4?'
p13
tp14
Rp15
ag6
(g10
S'333333\xe3?'
p16
tp17
Rp18
ag6
(g10
S'333333\xe3?'
p19
tp20
Rp21
ag6
(g10
S'\xecQ\xb8\x1e\x85\xeb\xe1?'
p22
tp23
Rp24
ag6
(g10
S'\x14\xaeG\xe1z\x14\xe6?'
p25
tp26
Rp27
ag6
(g10
S'ffffff\xe6?'
p28
tp29
Rp30
ag6
(g10
S')\\\x8f\xc2\xf5(\xe4?'
p31
tp32
Rp33
ag6
(g10
S'q=\n\xd7\xa3p\xe5?'
p34
tp35
Rp36
ag6
(g10
S'333333\xe3?'
p37
tp38
Rp39
ag6
(g10
S'q=\n\xd7\xa3p\xe5?'
p40
tp41
Rp42
ag6
(g10
S'q=\n\xd7\xa3p\xe5?'
p43
tp44
Rp45
ag6
(g10
S'\x14\xaeG\xe1z\x14\xe6?'
p46
tp47
Rp48
ag6
(g10
S'\xc3\xf5(\\\x8f\xc2\xe5?'
p49
tp50
Rp51
ag6
(g10
S')\\\x8f\xc2\xf5(\xe4?'
p52
tp53
Rp54
ag6
(g10
S'\x9a\x99\x99\x99\x99\x99\xe1?'
p55
tp56
Rp57
ag6
(g10
S'\x14\xaeG\xe1z\x14\xe6?'
p58
tp59
Rp60
ag6
(g10
S'\xc3\xf5(\\\x8f\xc2\xe5?'
p61
tp62
Rp63
ag6
(g10
S'333333\xe3?'
p64
tp65
Rp66
ag6
(g10
S'\xc3\xf5(\\\x8f\xc2\xe5?'
p67
tp68
Rp69
ag6
(g10
S'\x14\xaeG\xe1z\x14\xe6?'
p70
tp71
Rp72
ag6
(g10
S'{\x14\xaeG\xe1z\xe4?'
p73
tp74
Rp75
ag6
(g10
S'333333\xe3?'
p76
tp77
Rp78
ag6
(g10
S'H\xe1z\x14\xaeG\xe1?'
p79
tp80
Rp81
ag6
(g10
S'\x1f\x85\xebQ\xb8\x1e\xe5?'
p82
tp83
Rp84
ag6
(g10
S'\xd7\xa3p=\n\xd7\xe3?'
p85
tp86
Rp87
ag6
(g10
S'\x9a\x99\x99\x99\x99\x99\xe1?'
p88
tp89
Rp90
ag6
(g10
S'ffffff\xe6?'
p91
tp92
Rp93
ag6
(g10
S'ffffff\xe6?'
p94
tp95
Rp96
ag6
(g10
S'\xecQ\xb8\x1e\x85\xeb\xe1?'
p97
tp98
Rp99
ag6
(g10
S'q=\n\xd7\xa3p\xe5?'
p100
tp101
Rp102
aa(lp103
ccollections
OrderedDict
p104
((lp105
(lp106
S'm'
p107
aI50
aa(lp108
S'r'
p109
aI6
aa(lp110
S'k'
p111
aI12
aatp112
Rp113
ag104
((lp114
(lp115
g107
aI50
aa(lp116
g109
aI3
aa(lp117
g111
aI5
aatp118
Rp119
ag104
((lp120
(lp121
g107
aI50
aa(lp122
g109
aI4
aa(lp123
g111
aI21
aatp124
Rp125
ag104
((lp126
(lp127
g107
aI50
aa(lp128
g109
aI6
aa(lp129
g111
aI17
aatp130
Rp131
ag104
((lp132
(lp133
g107
aI50
aa(lp134
g109
aI6
aa(lp135
g111
aI14
aatp136
Rp137
ag104
((lp138
(lp139
g107
aI50
aa(lp140
g109
aI4
aa(lp141
g111
aI6
aatp142
Rp143
ag104
((lp144
(lp145
g107
aI50
aa(lp146
g109
aI3
aa(lp147
g111
aI5
aatp148
Rp149
ag104
((lp150
(lp151
g107
aI50
aa(lp152
g109
aI3
aa(lp153
g111
aI5
aatp154
Rp155
ag104
((lp156
(lp157
g107
aI50
aa(lp158
g109
aI3
aa(lp159
g111
aI15
aatp160
Rp161
ag104
((lp162
(lp163
g107
aI50
aa(lp164
g109
aI6
aa(lp165
g111
aI14
aatp166
Rp167
ag104
((lp168
(lp169
g107
aI50
aa(lp170
g109
aI1
aa(lp171
g111
aI19
aatp172
Rp173
ag104
((lp174
(lp175
g107
aI50
aa(lp176
g109
aI6
aa(lp177
g111
aI17
aatp178
Rp179
ag104
((lp180
(lp181
g107
aI50
aa(lp182
g109
aI6
aa(lp183
g111
aI12
aatp184
Rp185
ag104
((lp186
(lp187
g107
aI50
aa(lp188
g109
aI5
aa(lp189
g111
aI11
aatp190
Rp191
ag104
((lp192
(lp193
g107
aI50
aa(lp194
g109
aI3
aa(lp195
g111
aI20
aatp196
Rp197
ag104
((lp198
(lp199
g107
aI50
aa(lp200
g109
aI3
aa(lp201
g111
aI13
aatp202
Rp203
ag104
((lp204
(lp205
g107
aI50
aa(lp206
g109
aI3
aa(lp207
g111
aI13
aatp208
Rp209
ag104
((lp210
(lp211
g107
aI50
aa(lp212
g109
aI3
aa(lp213
g111
aI5
aatp214
Rp215
ag104
((lp216
(lp217
g107
aI50
aa(lp218
g109
aI5
aa(lp219
g111
aI11
aatp220
Rp221
ag104
((lp222
(lp223
g107
aI50
aa(lp224
g109
aI2
aa(lp225
g111
aI21
aatp226
Rp227
ag104
((lp228
(lp229
g107
aI50
aa(lp230
g109
aI3
aa(lp231
g111
aI15
aatp232
Rp233
ag104
((lp234
(lp235
g107
aI50
aa(lp236
g109
aI4
aa(lp237
g111
aI10
aatp238
Rp239
ag104
((lp240
(lp241
g107
aI50
aa(lp242
g109
aI6
aa(lp243
g111
aI14
aatp244
Rp245
ag104
((lp246
(lp247
g107
aI50
aa(lp248
g109
aI5
aa(lp249
g111
aI11
aatp250
Rp251
ag104
((lp252
(lp253
g107
aI50
aa(lp254
g109
aI4
aa(lp255
g111
aI10
aatp256
Rp257
ag104
((lp258
(lp259
g107
aI50
aa(lp260
g109
aI3
aa(lp261
g111
aI5
aatp262
Rp263
ag104
((lp264
(lp265
g107
aI50
aa(lp266
g109
aI3
aa(lp267
g111
aI20
aatp268
Rp269
ag104
((lp270
(lp271
g107
aI50
aa(lp272
g109
aI4
aa(lp273
g111
aI21
aatp274
Rp275
ag104
((lp276
(lp277
g107
aI50
aa(lp278
g109
aI2
aa(lp279
g111
aI21
aatp280
Rp281
ag104
((lp282
(lp283
g107
aI50
aa(lp284
g109
aI1
aa(lp285
g111
aI19
aatp286
Rp287
aaF713.5281419754028
asS'popt20'
p288
(lp289
(lp290
F0.67
aF0.7
aF0.7
aF0.66
aF0.69
aF0.64
aF0.69
aF0.66
aF0.67
aF0.66
aF0.72
aF0.65
aF0.64
aF0.64
aF0.7
aF0.64
aF0.66
aF0.69
aF0.69
aF0.69
aF0.66
aF0.64
aF0.65
aF0.7
aF0.66
aF0.67
aF0.66
aF0.63
aF0.7
aF0.65
aa(lp291
g104
((lp292
(lp293
g107
aI50
aa(lp294
g109
aI3
aa(lp295
g111
aI13
aatp296
Rp297
ag104
((lp298
(lp299
g107
aI50
aa(lp300
g109
aI6
aa(lp301
g111
aI12
aatp302
Rp303
ag104
((lp304
(lp305
g107
aI50
aa(lp306
g109
aI3
aa(lp307
g111
aI13
aatp308
Rp309
ag104
((lp310
(lp311
g107
aI50
aa(lp312
g109
aI3
aa(lp313
g111
aI5
aatp314
Rp315
ag104
((lp316
(lp317
g107
aI200
aa(lp318
g109
aI2
aa(lp319
g111
aI21
aatp320
Rp321
ag104
((lp322
(lp323
g107
aI200
aa(lp324
g109
aI5
aa(lp325
g111
aI6
aatp326
Rp327
ag104
((lp328
(lp329
g107
aI200
aa(lp330
g109
aI6
aa(lp331
g111
aI11
aatp332
Rp333
ag104
((lp334
(lp335
g107
aI100
aa(lp336
g109
aI4
aa(lp337
g111
aI13
aatp338
Rp339
ag104
((lp340
(lp341
g107
aI100
aa(lp342
g109
aI6
aa(lp343
g111
aI14
aatp344
Rp345
ag104
((lp346
(lp347
g107
aI100
aa(lp348
g109
aI3
aa(lp349
g111
aI9
aatp350
Rp351
ag104
((lp352
(lp353
g107
aI50
aa(lp354
g109
aI3
aa(lp355
g111
aI13
aatp356
Rp357
ag104
((lp358
(lp359
g107
aI100
aa(lp360
g109
aI2
aa(lp361
g111
aI5
aatp362
Rp363
ag104
((lp364
(lp365
g107
aI100
aa(lp366
g109
aI6
aa(lp367
g111
aI19
aatp368
Rp369
ag104
((lp370
(lp371
g107
aI100
aa(lp372
g109
aI6
aa(lp373
g111
aI5
aatp374
Rp375
ag104
((lp376
(lp377
g107
aI50
aa(lp378
g109
aI3
aa(lp379
g111
aI13
aatp380
Rp381
ag104
((lp382
(lp383
g107
aI200
aa(lp384
g109
aI5
aa(lp385
g111
aI6
aatp386
Rp387
ag104
((lp388
(lp389
g107
aI50
aa(lp390
g109
aI3
aa(lp391
g111
aI13
aatp392
Rp393
ag104
((lp394
(lp395
g107
aI50
aa(lp396
g109
aI3
aa(lp397
g111
aI5
aatp398
Rp399
ag104
((lp400
(lp401
g107
aI50
aa(lp402
g109
aI3
aa(lp403
g111
aI13
aatp404
Rp405
ag104
((lp406
(lp407
g107
aI50
aa(lp408
g109
aI3
aa(lp409
g111
aI5
aatp410
Rp411
ag104
((lp412
(lp413
g107
aI100
aa(lp414
g109
aI2
aa(lp415
g111
aI19
aatp416
Rp417
ag104
((lp418
(lp419
g107
aI100
aa(lp420
g109
aI3
aa(lp421
g111
aI15
aatp422
Rp423
ag104
((lp424
(lp425
g107
aI100
aa(lp426
g109
aI3
aa(lp427
g111
aI16
aatp428
Rp429
ag104
((lp430
(lp431
g107
aI100
aa(lp432
g109
aI2
aa(lp433
g111
aI5
aatp434
Rp435
ag104
((lp436
(lp437
g107
aI100
aa(lp438
g109
aI2
aa(lp439
g111
aI5
aatp440
Rp441
ag104
((lp442
(lp443
g107
aI50
aa(lp444
g109
aI3
aa(lp445
g111
aI13
aatp446
Rp447
ag104
((lp448
(lp449
g107
aI200
aa(lp450
g109
aI3
aa(lp451
g111
aI11
aatp452
Rp453
ag104
((lp454
(lp455
g107
aI50
aa(lp456
g109
aI3
aa(lp457
g111
aI13
aatp458
Rp459
ag104
((lp460
(lp461
g107
aI50
aa(lp462
g109
aI5
aa(lp463
g111
aI11
aatp464
Rp465
ag104
((lp466
(lp467
g107
aI200
aa(lp468
g109
aI2
aa(lp469
g111
aI7
aatp470
Rp471
aaF627.6641030311584
assS'SVM'
p472
(dp473
g3
(lp474
(lp475
g6
(g10
S'\xd7\xa3p=\n\xd7\xe3?'
p476
tp477
Rp478
ag6
(g10
S'\xcd\xcc\xcc\xcc\xcc\xcc\xdc?'
p479
tp480
Rp481
ag6
(g10
S'q=\n\xd7\xa3p\xdd?'
p482
tp483
Rp484
ag6
(g10
S'\xe1z\x14\xaeG\xe1\xe2?'
p485
tp486
Rp487
ag6
(g10
S'\xf6(\\\x8f\xc2\xf5\xe0?'
p488
tp489
Rp490
ag6
(g10
S'\xa4p=\n\xd7\xa3\xe0?'
p491
tp492
Rp493
ag6
(g10
S'\\\x8f\xc2\xf5(\\\xef?'
p494
tp495
Rp496
ag6
(g10
S'\x9a\x99\x99\x99\x99\x99\xd9?'
p497
tp498
Rp499
ag6
(g10
S'\x00\x00\x00\x00\x00\x00\xe0?'
p500
tp501
Rp502
ag6
(g10
S')\\\x8f\xc2\xf5(\xe4?'
p503
tp504
Rp505
ag6
(g10
S'\x85\xebQ\xb8\x1e\x85\xe3?'
p506
tp507
Rp508
ag6
(g10
S'\xcd\xcc\xcc\xcc\xcc\xcc\xdc?'
p509
tp510
Rp511
ag6
(g10
S'\\\x8f\xc2\xf5(\\\xef?'
p512
tp513
Rp514
ag6
(g10
S'\xf6(\\\x8f\xc2\xf5\xd8?'
p515
tp516
Rp517
ag6
(g10
S'H\xe1z\x14\xaeG\xe1?'
p518
tp519
Rp520
ag6
(g10
S'{\x14\xaeG\xe1z\xe4?'
p521
tp522
Rp523
ag6
(g10
S'R\xb8\x1e\x85\xebQ\xe0?'
p524
tp525
Rp526
ag6
(g10
S'\x00\x00\x00\x00\x00\x00\xe0?'
p527
tp528
Rp529
ag6
(g10
S'=\n\xd7\xa3p=\xe2?'
p530
tp531
Rp532
ag6
(g10
S'R\xb8\x1e\x85\xebQ\xd8?'
p533
tp534
Rp535
ag6
(g10
S'\x8f\xc2\xf5(\\\x8f\xe2?'
p536
tp537
Rp538
ag6
(g10
S'\x8f\xc2\xf5(\\\x8f\xe2?'
p539
tp540
Rp541
ag6
(g10
S'\xecQ\xb8\x1e\x85\xeb\xe1?'
p542
tp543
Rp544
ag6
(g10
S'q=\n\xd7\xa3p\xe5?'
p545
tp546
Rp547
ag6
(g10
S'\xe1z\x14\xaeG\xe1\xda?'
p548
tp549
Rp550
ag6
(g10
S'=\n\xd7\xa3p=\xda?'
p551
tp552
Rp553
ag6
(g10
S'ffffff\xee?'
p554
tp555
Rp556
ag6
(g10
S'\x14\xaeG\xe1z\x14\xe6?'
p557
tp558
Rp559
ag6
(g10
S'{\x14\xaeG\xe1z\xec?'
p560
tp561
Rp562
ag6
(g10
S'\x9a\x99\x99\x99\x99\x99\xd9?'
p563
tp564
Rp565
aa(lp566
g104
((lp567
(lp568
g107
aI50
aa(lp569
g109
aI6
aa(lp570
g111
aI15
aatp571
Rp572
ag104
((lp573
(lp574
g107
aI400
aa(lp575
g109
aI2
aa(lp576
g111
aI19
aatp577
Rp578
ag104
((lp579
(lp580
g107
aI200
aa(lp581
g109
aI2
aa(lp582
g111
aI21
aatp583
Rp584
ag104
((lp585
(lp586
g107
aI200
aa(lp587
g109
aI4
aa(lp588
g111
aI10
aatp589
Rp590
ag104
((lp591
(lp592
g107
aI200
aa(lp593
g109
aI2
aa(lp594
g111
aI21
aatp595
Rp596
ag104
((lp597
(lp598
g107
aI200
aa(lp599
g109
aI1
aa(lp600
g111
aI15
aatp601
Rp602
ag104
((lp603
(lp604
g107
aI100
aa(lp605
g109
aI4
aa(lp606
g111
aI17
aatp607
Rp608
ag104
((lp609
(lp610
g107
aI200
aa(lp611
g109
aI5
aa(lp612
g111
aI13
aatp613
Rp614
ag104
((lp615
(lp616
g107
aI400
aa(lp617
g109
aI1
aa(lp618
g111
aI12
aatp619
Rp620
ag104
((lp621
(lp622
g107
aI50
aa(lp623
g109
aI6
aa(lp624
g111
aI12
aatp625
Rp626
ag104
((lp627
(lp628
g107
aI200
aa(lp629
g109
aI2
aa(lp630
g111
aI21
aatp631
Rp632
ag104
((lp633
(lp634
g107
aI400
aa(lp635
g109
aI2
aa(lp636
g111
aI19
aatp637
Rp638
ag104
((lp639
(lp640
g107
aI100
aa(lp641
g109
aI6
aa(lp642
g111
aI13
aatp643
Rp644
ag104
((lp645
(lp646
g107
aI400
aa(lp647
g109
aI2
aa(lp648
g111
aI19
aatp649
Rp650
ag104
((lp651
(lp652
g107
aI200
aa(lp653
g109
aI5
aa(lp654
g111
aI6
aatp655
Rp656
ag104
((lp657
(lp658
g107
aI50
aa(lp659
g109
aI5
aa(lp660
g111
aI11
aatp661
Rp662
ag104
((lp663
(lp664
g107
aI400
aa(lp665
g109
aI5
aa(lp666
g111
aI18
aatp667
Rp668
ag104
((lp669
(lp670
g107
aI400
aa(lp671
g109
aI1
aa(lp672
g111
aI12
aatp673
Rp674
ag104
((lp675
(lp676
g107
aI50
aa(lp677
g109
aI5
aa(lp678
g111
aI11
aatp679
Rp680
ag104
((lp681
(lp682
g107
aI400
aa(lp683
g109
aI1
aa(lp684
g111
aI12
aatp685
Rp686
ag104
((lp687
(lp688
g107
aI100
aa(lp689
g109
aI6
aa(lp690
g111
aI17
aatp691
Rp692
ag104
((lp693
(lp694
g107
aI200
aa(lp695
g109
aI2
aa(lp696
g111
aI21
aatp697
Rp698
ag104
((lp699
(lp700
g107
aI50
aa(lp701
g109
aI1
aa(lp702
g111
aI14
aatp703
Rp704
ag104
((lp705
(lp706
g107
aI50
aa(lp707
g109
aI1
aa(lp708
g111
aI15
aatp709
Rp710
ag104
((lp711
(lp712
g107
aI400
aa(lp713
g109
aI1
aa(lp714
g111
aI12
aatp715
Rp716
ag104
((lp717
(lp718
g107
aI200
aa(lp719
g109
aI2
aa(lp720
g111
aI21
aatp721
Rp722
ag104
((lp723
(lp724
g107
aI400
aa(lp725
g109
aI1
aa(lp726
g111
aI12
aatp727
Rp728
ag104
((lp729
(lp730
g107
aI50
aa(lp731
g109
aI2
aa(lp732
g111
aI13
aatp733
Rp734
ag104
((lp735
(lp736
g107
aI400
aa(lp737
g109
aI2
aa(lp738
g111
aI19
aatp739
Rp740
ag104
((lp741
(lp742
g107
aI400
aa(lp743
g109
aI6
aa(lp744
g111
aI12
aatp745
Rp746
aaF470.6625211238861
asg288
(lp747
(lp748
F0.73
aF0.69
aF0.66
aF0.72
aF0.72
aF0.7
aF0.67
aF0.44
aF0.74
aF0.72
aF0.69
aF0.71
aF0.22
aF0.74
aF0.69
aF0.64
aF0.7
aF0.72
aF0.7
aF0.69
aF0.67
aF0.66
aF0.72
aF0.66
aF0.7
aF0.65
aF0.67
aF0.64
aF0.7
aF0.73
aa(lp749
g104
((lp750
(lp751
g107
aI50
aa(lp752
g109
aI3
aa(lp753
g111
aI5
aatp754
Rp755
ag104
((lp756
(lp757
g107
aI100
aa(lp758
g109
aI4
aa(lp759
g111
aI17
aatp760
Rp761
ag104
((lp762
(lp763
g107
aI100
aa(lp764
g109
aI2
aa(lp765
g111
aI7
aatp766
Rp767
ag104
((lp768
(lp769
g107
aI50
aa(lp770
g109
aI3
aa(lp771
g111
aI5
aatp772
Rp773
ag104
((lp774
(lp775
g107
aI50
aa(lp776
g109
aI3
aa(lp777
g111
aI7
aatp778
Rp779
ag104
((lp780
(lp781
g107
aI100
aa(lp782
g109
aI4
aa(lp783
g111
aI7
aatp784
Rp785
ag104
((lp786
(lp787
g107
aI400
aa(lp788
g109
aI5
aa(lp789
g111
aI13
aatp790
Rp791
ag104
((lp792
(lp793
g107
aI400
aa(lp794
g109
aI1
aa(lp795
g111
aI15
aatp796
Rp797
ag104
((lp798
(lp799
g107
aI50
aa(lp800
g109
aI1
aa(lp801
g111
aI15
aatp802
Rp803
ag104
((lp804
(lp805
g107
aI50
aa(lp806
g109
aI6
aa(lp807
g111
aI12
aatp808
Rp809
ag104
((lp810
(lp811
g107
aI100
aa(lp812
g109
aI2
aa(lp813
g111
aI18
aatp814
Rp815
ag104
((lp816
(lp817
g107
aI50
aa(lp818
g109
aI3
aa(lp819
g111
aI13
aatp820
Rp821
ag104
((lp822
(lp823
g107
aI400
aa(lp824
g109
aI4
aa(lp825
g111
aI16
aatp826
Rp827
ag104
((lp828
(lp829
g107
aI50
aa(lp830
g109
aI3
aa(lp831
g111
aI13
aatp832
Rp833
ag104
((lp834
(lp835
g107
aI100
aa(lp836
g109
aI6
aa(lp837
g111
aI14
aatp838
Rp839
ag104
((lp840
(lp841
g107
aI400
aa(lp842
g109
aI2
aa(lp843
g111
aI19
aatp844
Rp845
ag104
((lp846
(lp847
g107
aI400
aa(lp848
g109
aI2
aa(lp849
g111
aI19
aatp850
Rp851
ag104
((lp852
(lp853
g107
aI50
aa(lp854
g109
aI6
aa(lp855
g111
aI14
aatp856
Rp857
ag104
((lp858
(lp859
g107
aI400
aa(lp860
g109
aI2
aa(lp861
g111
aI19
aatp862
Rp863
ag104
((lp864
(lp865
g107
aI400
aa(lp866
g109
aI2
aa(lp867
g111
aI19
aatp868
Rp869
ag104
((lp870
(lp871
g107
aI50
aa(lp872
g109
aI1
aa(lp873
g111
aI15
aatp874
Rp875
ag104
((lp876
(lp877
g107
aI400
aa(lp878
g109
aI2
aa(lp879
g111
aI19
aatp880
Rp881
ag104
((lp882
(lp883
g107
aI50
aa(lp884
g109
aI3
aa(lp885
g111
aI13
aatp886
Rp887
ag104
((lp888
(lp889
g107
aI400
aa(lp890
g109
aI1
aa(lp891
g111
aI5
aatp892
Rp893
ag104
((lp894
(lp895
g107
aI100
aa(lp896
g109
aI3
aa(lp897
g111
aI13
aatp898
Rp899
ag104
((lp900
(lp901
g107
aI200
aa(lp902
g109
aI3
aa(lp903
g111
aI5
aatp904
Rp905
ag104
((lp906
(lp907
g107
aI100
aa(lp908
g109
aI5
aa(lp909
g111
aI8
aatp910
Rp911
ag104
((lp912
(lp913
g107
aI400
aa(lp914
g109
aI2
aa(lp915
g111
aI19
aatp916
Rp917
ag104
((lp918
(lp919
g107
aI50
aa(lp920
g109
aI3
aa(lp921
g111
aI5
aatp922
Rp923
ag104
((lp924
(lp925
g107
aI50
aa(lp926
g109
aI3
aa(lp927
g111
aI15
aatp928
Rp929
aaF431.11347007751465
assS'NB'
p930
(dp931
g3
(lp932
(lp933
g6
(g10
S'\xf6(\\\x8f\xc2\xf5\xe0?'
p934
tp935
Rp936
ag6
(g10
S'\x00\x00\x00\x00\x00\x00\xe0?'
p937
tp938
Rp939
ag6
(g10
S'q=\n\xd7\xa3p\xdd?'
p940
tp941
Rp942
ag6
(g10
S'R\xb8\x1e\x85\xebQ\xe0?'
p943
tp944
Rp945
ag6
(g10
S'\x14\xaeG\xe1z\x14\xde?'
p946
tp947
Rp948
ag6
(g10
S'H\xe1z\x14\xaeG\xe1?'
p949
tp950
Rp951
ag6
(g10
S'\xe1z\x14\xaeG\xe1\xe2?'
p952
tp953
Rp954
ag6
(g10
S'\x85\xebQ\xb8\x1e\x85\xe3?'
p955
tp956
Rp957
ag6
(g10
S'\xecQ\xb8\x1e\x85\xeb\xe1?'
p958
tp959
Rp960
ag6
(g10
S'\\\x8f\xc2\xf5(\\\xdf?'
p961
tp962
Rp963
ag6
(g10
S'\xecQ\xb8\x1e\x85\xeb\xe1?'
p964
tp965
Rp966
ag6
(g10
S'q=\n\xd7\xa3p\xdd?'
p967
tp968
Rp969
ag6
(g10
S'\x00\x00\x00\x00\x00\x00\xe0?'
p970
tp971
Rp972
ag6
(g10
S'\n\xd7\xa3p=\n\xb7?'
p973
tp974
Rp975
ag6
(g10
S'H\xe1z\x14\xaeG\xe1?'
p976
tp977
Rp978
ag6
(g10
S'\xe1z\x14\xaeG\xe1\xda?'
p979
tp980
Rp981
ag6
(g10
S'=\n\xd7\xa3p=\xe2?'
p982
tp983
Rp984
ag6
(g10
S'333333\xe3?'
p985
tp986
Rp987
ag6
(g10
S'R\xb8\x1e\x85\xebQ\xd8?'
p988
tp989
Rp990
ag6
(g10
S'\xd7\xa3p=\n\xd7\xe3?'
p991
tp992
Rp993
ag6
(g10
S'\x14\xaeG\xe1z\x14\xde?'
p994
tp995
Rp996
ag6
(g10
S'\x00\x00\x00\x00\x00\x00\xe0?'
p997
tp998
Rp999
ag6
(g10
S'\xf6(\\\x8f\xc2\xf5\xe0?'
p1000
tp1001
Rp1002
ag6
(g10
S'q=\n\xd7\xa3p\xdd?'
p1003
tp1004
Rp1005
ag6
(g10
S'\x00\x00\x00\x00\x00\x00\xe0?'
p1006
tp1007
Rp1008
ag6
(g10
S'\xf6(\\\x8f\xc2\xf5\xe0?'
p1009
tp1010
Rp1011
ag6
(g10
S'R\xb8\x1e\x85\xebQ\xe0?'
p1012
tp1013
Rp1014
ag6
(g10
S'\x9a\x99\x99\x99\x99\x99\xe1?'
p1015
tp1016
Rp1017
ag6
(g10
S'{\x14\xaeG\xe1z\xe4?'
p1018
tp1019
Rp1020
ag6
(g10
S'R\xb8\x1e\x85\xebQ\xe0?'
p1021
tp1022
Rp1023
aa(lp1024
g104
((lp1025
(lp1026
g107
aI100
aa(lp1027
g109
aI3
aa(lp1028
g111
aI12
aatp1029
Rp1030
ag104
((lp1031
(lp1032
g107
aI50
aa(lp1033
g109
aI3
aa(lp1034
g111
aI5
aatp1035
Rp1036
ag104
((lp1037
(lp1038
g107
aI50
aa(lp1039
g109
aI6
aa(lp1040
g111
aI14
aatp1041
Rp1042
ag104
((lp1043
(lp1044
g107
aI50
aa(lp1045
g109
aI2
aa(lp1046
g111
aI20
aatp1047
Rp1048
ag104
((lp1049
(lp1050
g107
aI50
aa(lp1051
g109
aI2
aa(lp1052
g111
aI20
aatp1053
Rp1054
ag104
((lp1055
(lp1056
g107
aI200
aa(lp1057
g109
aI6
aa(lp1058
g111
aI11
aatp1059
Rp1060
ag104
((lp1061
(lp1062
g107
aI100
aa(lp1063
g109
aI3
aa(lp1064
g111
aI16
aatp1065
Rp1066
ag104
((lp1067
(lp1068
g107
aI100
aa(lp1069
g109
aI5
aa(lp1070
g111
aI5
aatp1071
Rp1072
ag104
((lp1073
(lp1074
g107
aI100
aa(lp1075
g109
aI4
aa(lp1076
g111
aI17
aatp1077
Rp1078
ag104
((lp1079
(lp1080
g107
aI100
aa(lp1081
g109
aI3
aa(lp1082
g111
aI16
aatp1083
Rp1084
ag104
((lp1085
(lp1086
g107
aI50
aa(lp1087
g109
aI3
aa(lp1088
g111
aI5
aatp1089
Rp1090
ag104
((lp1091
(lp1092
g107
aI50
aa(lp1093
g109
aI6
aa(lp1094
g111
aI15
aatp1095
Rp1096
ag104
((lp1097
(lp1098
g107
aI50
aa(lp1099
g109
aI1
aa(lp1100
g111
aI15
aatp1101
Rp1102
ag104
((lp1103
(lp1104
g107
aI50
aa(lp1105
g109
aI4
aa(lp1106
g111
aI11
aatp1107
Rp1108
ag104
((lp1109
(lp1110
g107
aI50
aa(lp1111
g109
aI6
aa(lp1112
g111
aI12
aatp1113
Rp1114
ag104
((lp1115
(lp1116
g107
aI50
aa(lp1117
g109
aI6
aa(lp1118
g111
aI12
aatp1119
Rp1120
ag104
((lp1121
(lp1122
g107
aI50
aa(lp1123
g109
aI3
aa(lp1124
g111
aI5
aatp1125
Rp1126
ag104
((lp1127
(lp1128
g107
aI200
aa(lp1129
g109
aI4
aa(lp1130
g111
aI17
aatp1131
Rp1132
ag104
((lp1133
(lp1134
g107
aI50
aa(lp1135
g109
aI3
aa(lp1136
g111
aI13
aatp1137
Rp1138
ag104
((lp1139
(lp1140
g107
aI200
aa(lp1141
g109
aI5
aa(lp1142
g111
aI7
aatp1143
Rp1144
ag104
((lp1145
(lp1146
g107
aI100
aa(lp1147
g109
aI6
aa(lp1148
g111
aI16
aatp1149
Rp1150
ag104
((lp1151
(lp1152
g107
aI50
aa(lp1153
g109
aI3
aa(lp1154
g111
aI21
aatp1155
Rp1156
ag104
((lp1157
(lp1158
g107
aI100
aa(lp1159
g109
aI4
aa(lp1160
g111
aI17
aatp1161
Rp1162
ag104
((lp1163
(lp1164
g107
aI50
aa(lp1165
g109
aI6
aa(lp1166
g111
aI17
aatp1167
Rp1168
ag104
((lp1169
(lp1170
g107
aI200
aa(lp1171
g109
aI5
aa(lp1172
g111
aI6
aatp1173
Rp1174
ag104
((lp1175
(lp1176
g107
aI100
aa(lp1177
g109
aI4
aa(lp1178
g111
aI17
aatp1179
Rp1180
ag104
((lp1181
(lp1182
g107
aI50
aa(lp1183
g109
aI6
aa(lp1184
g111
aI17
aatp1185
Rp1186
ag104
((lp1187
(lp1188
g107
aI50
aa(lp1189
g109
aI6
aa(lp1190
g111
aI12
aatp1191
Rp1192
ag104
((lp1193
(lp1194
g107
aI200
aa(lp1195
g109
aI2
aa(lp1196
g111
aI21
aatp1197
Rp1198
ag104
((lp1199
(lp1200
g107
aI50
aa(lp1201
g109
aI6
aa(lp1202
g111
aI14
aatp1203
Rp1204
aaF279.7060158252716
asg288
(lp1205
(lp1206
F0.22
aF0.29
aF0.21
aF0.21
aF0.28
aF0.22
aF0.28
aF0.29
aF0.28
aF0.26
aF0.23
aF0.2
aF0.24
aF0.24
aF0.27
aF0.27
aF0.66
aF0.31
aF0.26
aF0.24
aF0.26
aF0.27
aF0.27
aF0.2
aF0.22
aF0.24
aF0.29
aF0.19
aF0.26
aF0.26
aa(lp1207
g104
((lp1208
(lp1209
g107
aI50
aa(lp1210
g109
aI2
aa(lp1211
g111
aI11
aatp1212
Rp1213
ag104
((lp1214
(lp1215
g107
aI50
aa(lp1216
g109
aI3
aa(lp1217
g111
aI16
aatp1218
Rp1219
ag104
((lp1220
(lp1221
g107
aI100
aa(lp1222
g109
aI3
aa(lp1223
g111
aI12
aatp1224
Rp1225
ag104
((lp1226
(lp1227
g107
aI200
aa(lp1228
g109
aI1
aa(lp1229
g111
aI18
aatp1230
Rp1231
ag104
((lp1232
(lp1233
g107
aI50
aa(lp1234
g109
aI3
aa(lp1235
g111
aI21
aatp1236
Rp1237
ag104
((lp1238
(lp1239
g107
aI100
aa(lp1240
g109
aI3
aa(lp1241
g111
aI16
aatp1242
Rp1243
ag104
((lp1244
(lp1245
g107
aI100
aa(lp1246
g109
aI1
aa(lp1247
g111
aI19
aatp1248
Rp1249
ag104
((lp1250
(lp1251
g107
aI50
aa(lp1252
g109
aI2
aa(lp1253
g111
aI19
aatp1254
Rp1255
ag104
((lp1256
(lp1257
g107
aI50
aa(lp1258
g109
aI5
aa(lp1259
g111
aI18
aatp1260
Rp1261
ag104
((lp1262
(lp1263
g107
aI50
aa(lp1264
g109
aI6
aa(lp1265
g111
aI17
aatp1266
Rp1267
ag104
((lp1268
(lp1269
g107
aI100
aa(lp1270
g109
aI5
aa(lp1271
g111
aI8
aatp1272
Rp1273
ag104
((lp1274
(lp1275
g107
aI50
aa(lp1276
g109
aI3
aa(lp1277
g111
aI5
aatp1278
Rp1279
ag104
((lp1280
(lp1281
g107
aI50
aa(lp1282
g109
aI1
aa(lp1283
g111
aI6
aatp1284
Rp1285
ag104
((lp1286
(lp1287
g107
aI50
aa(lp1288
g109
aI2
aa(lp1289
g111
aI13
aatp1290
Rp1291
ag104
((lp1292
(lp1293
g107
aI50
aa(lp1294
g109
aI6
aa(lp1295
g111
aI17
aatp1296
Rp1297
ag104
((lp1298
(lp1299
g107
aI50
aa(lp1300
g109
aI3
aa(lp1301
g111
aI5
aatp1302
Rp1303
ag104
((lp1304
(lp1305
g107
aI50
aa(lp1306
g109
aI5
aa(lp1307
g111
aI5
aatp1308
Rp1309
ag104
((lp1310
(lp1311
g107
aI50
aa(lp1312
g109
aI5
aa(lp1313
g111
aI11
aatp1314
Rp1315
ag104
((lp1316
(lp1317
g107
aI50
aa(lp1318
g109
aI3
aa(lp1319
g111
aI13
aatp1320
Rp1321
ag104
((lp1322
(lp1323
g107
aI50
aa(lp1324
g109
aI2
aa(lp1325
g111
aI20
aatp1326
Rp1327
ag104
((lp1328
(lp1329
g107
aI200
aa(lp1330
g109
aI2
aa(lp1331
g111
aI21
aatp1332
Rp1333
ag104
((lp1334
(lp1335
g107
aI50
aa(lp1336
g109
aI3
aa(lp1337
g111
aI13
aatp1338
Rp1339
ag104
((lp1340
(lp1341
g107
aI50
aa(lp1342
g109
aI3
aa(lp1343
g111
aI18
aatp1344
Rp1345
ag104
((lp1346
(lp1347
g107
aI50
aa(lp1348
g109
aI6
aa(lp1349
g111
aI17
aatp1350
Rp1351
ag104
((lp1352
(lp1353
g107
aI50
aa(lp1354
g109
aI6
aa(lp1355
g111
aI12
aatp1356
Rp1357
ag104
((lp1358
(lp1359
g107
aI50
aa(lp1360
g109
aI6
aa(lp1361
g111
aI12
aatp1362
Rp1363
ag104
((lp1364
(lp1365
g107
aI50
aa(lp1366
g109
aI3
aa(lp1367
g111
aI5
aatp1368
Rp1369
ag104
((lp1370
(lp1371
g107
aI50
aa(lp1372
g109
aI3
aa(lp1373
g111
aI5
aatp1374
Rp1375
ag104
((lp1376
(lp1377
g107
aI50
aa(lp1378
g109
aI6
aa(lp1379
g111
aI12
aatp1380
Rp1381
ag104
((lp1382
(lp1383
g107
aI50
aa(lp1384
g109
aI6
aa(lp1385
g111
aI17
aatp1386
Rp1387
aaF317.7815899848938
assS'RF'
p1388
(dp1389
g3
(lp1390
(lp1391
g6
(g10
S'333333\xe3?'
p1392
tp1393
Rp1394
ag6
(g10
S'=\n\xd7\xa3p=\xe2?'
p1395
tp1396
Rp1397
ag6
(g10
S'\x8f\xc2\xf5(\\\x8f\xe2?'
p1398
tp1399
Rp1400
ag6
(g10
S'{\x14\xaeG\xe1z\xe4?'
p1401
tp1402
Rp1403
ag6
(g10
S'\x1f\x85\xebQ\xb8\x1e\xe5?'
p1404
tp1405
Rp1406
ag6
(g10
S'\xe1z\x14\xaeG\xe1\xe2?'
p1407
tp1408
Rp1409
ag6
(g10
S'\xa4p=\n\xd7\xa3\xe0?'
p1410
tp1411
Rp1412
ag6
(g10
S'=\n\xd7\xa3p=\xe2?'
p1413
tp1414
Rp1415
ag6
(g10
S'\\\x8f\xc2\xf5(\\\xdf?'
p1416
tp1417
Rp1418
ag6
(g10
S'R\xb8\x1e\x85\xebQ\xe0?'
p1419
tp1420
Rp1421
ag6
(g10
S'{\x14\xaeG\xe1z\xe4?'
p1422
tp1423
Rp1424
ag6
(g10
S'\xcd\xcc\xcc\xcc\xcc\xcc\xe4?'
p1425
tp1426
Rp1427
ag6
(g10
S'\x85\xebQ\xb8\x1e\x85\xe3?'
p1428
tp1429
Rp1430
ag6
(g10
S'\x85\xebQ\xb8\x1e\x85\xe3?'
p1431
tp1432
Rp1433
ag6
(g10
S')\\\x8f\xc2\xf5(\xe4?'
p1434
tp1435
Rp1436
ag6
(g10
S')\\\x8f\xc2\xf5(\xe4?'
p1437
tp1438
Rp1439
ag6
(g10
S'H\xe1z\x14\xaeG\xe1?'
p1440
tp1441
Rp1442
ag6
(g10
S'{\x14\xaeG\xe1z\xe4?'
p1443
tp1444
Rp1445
ag6
(g10
S'333333\xe3?'
p1446
tp1447
Rp1448
ag6
(g10
S'\xe1z\x14\xaeG\xe1\xe2?'
p1449
tp1450
Rp1451
ag6
(g10
S'\xecQ\xb8\x1e\x85\xeb\xe1?'
p1452
tp1453
Rp1454
ag6
(g10
S'\x85\xebQ\xb8\x1e\x85\xe3?'
p1455
tp1456
Rp1457
ag6
(g10
S'\xf6(\\\x8f\xc2\xf5\xe0?'
p1458
tp1459
Rp1460
ag6
(g10
S'\xf6(\\\x8f\xc2\xf5\xe0?'
p1461
tp1462
Rp1463
ag6
(g10
S'ffffff\xe6?'
p1464
tp1465
Rp1466
ag6
(g10
S'\x9a\x99\x99\x99\x99\x99\xe1?'
p1467
tp1468
Rp1469
ag6
(g10
S'\x85\xebQ\xb8\x1e\x85\xe3?'
p1470
tp1471
Rp1472
ag6
(g10
S'\x00\x00\x00\x00\x00\x00\xe0?'
p1473
tp1474
Rp1475
ag6
(g10
S'\xc3\xf5(\\\x8f\xc2\xe5?'
p1476
tp1477
Rp1478
ag6
(g10
S'{\x14\xaeG\xe1z\xe4?'
p1479
tp1480
Rp1481
aa(lp1482
g104
((lp1483
(lp1484
g107
aI50
aa(lp1485
g109
aI5
aa(lp1486
g111
aI18
aatp1487
Rp1488
ag104
((lp1489
(lp1490
g107
aI50
aa(lp1491
g109
aI2
aa(lp1492
g111
aI13
aatp1493
Rp1494
ag104
((lp1495
(lp1496
g107
aI50
aa(lp1497
g109
aI6
aa(lp1498
g111
aI8
aatp1499
Rp1500
ag104
((lp1501
(lp1502
g107
aI50
aa(lp1503
g109
aI5
aa(lp1504
g111
aI19
aatp1505
Rp1506
ag104
((lp1507
(lp1508
g107
aI50
aa(lp1509
g109
aI5
aa(lp1510
g111
aI11
aatp1511
Rp1512
ag104
((lp1513
(lp1514
g107
aI50
aa(lp1515
g109
aI6
aa(lp1516
g111
aI17
aatp1517
Rp1518
ag104
((lp1519
(lp1520
g107
aI50
aa(lp1521
g109
aI6
aa(lp1522
g111
aI17
aatp1523
Rp1524
ag104
((lp1525
(lp1526
g107
aI50
aa(lp1527
g109
aI6
aa(lp1528
g111
aI14
aatp1529
Rp1530
ag104
((lp1531
(lp1532
g107
aI50
aa(lp1533
g109
aI6
aa(lp1534
g111
aI17
aatp1535
Rp1536
ag104
((lp1537
(lp1538
g107
aI50
aa(lp1539
g109
aI3
aa(lp1540
g111
aI20
aatp1541
Rp1542
ag104
((lp1543
(lp1544
g107
aI50
aa(lp1545
g109
aI3
aa(lp1546
g111
aI5
aatp1547
Rp1548
ag104
((lp1549
(lp1550
g107
aI50
aa(lp1551
g109
aI5
aa(lp1552
g111
aI19
aatp1553
Rp1554
ag104
((lp1555
(lp1556
g107
aI50
aa(lp1557
g109
aI5
aa(lp1558
g111
aI18
aatp1559
Rp1560
ag104
((lp1561
(lp1562
g107
aI50
aa(lp1563
g109
aI4
aa(lp1564
g111
aI10
aatp1565
Rp1566
ag104
((lp1567
(lp1568
g107
aI50
aa(lp1569
g109
aI5
aa(lp1570
g111
aI18
aatp1571
Rp1572
ag104
((lp1573
(lp1574
g107
aI50
aa(lp1575
g109
aI6
aa(lp1576
g111
aI12
aatp1577
Rp1578
ag104
((lp1579
(lp1580
g107
aI50
aa(lp1581
g109
aI3
aa(lp1582
g111
aI5
aatp1583
Rp1584
ag104
((lp1585
(lp1586
g107
aI50
aa(lp1587
g109
aI6
aa(lp1588
g111
aI12
aatp1589
Rp1590
ag104
((lp1591
(lp1592
g107
aI50
aa(lp1593
g109
aI6
aa(lp1594
g111
aI12
aatp1595
Rp1596
ag104
((lp1597
(lp1598
g107
aI50
aa(lp1599
g109
aI2
aa(lp1600
g111
aI13
aatp1601
Rp1602
ag104
((lp1603
(lp1604
g107
aI50
aa(lp1605
g109
aI4
aa(lp1606
g111
aI10
aatp1607
Rp1608
ag104
((lp1609
(lp1610
g107
aI50
aa(lp1611
g109
aI3
aa(lp1612
g111
aI13
aatp1613
Rp1614
ag104
((lp1615
(lp1616
g107
aI50
aa(lp1617
g109
aI2
aa(lp1618
g111
aI7
aatp1619
Rp1620
ag104
((lp1621
(lp1622
g107
aI50
aa(lp1623
g109
aI2
aa(lp1624
g111
aI19
aatp1625
Rp1626
ag104
((lp1627
(lp1628
g107
aI50
aa(lp1629
g109
aI4
aa(lp1630
g111
aI10
aatp1631
Rp1632
ag104
((lp1633
(lp1634
g107
aI50
aa(lp1635
g109
aI3
aa(lp1636
g111
aI15
aatp1637
Rp1638
ag104
((lp1639
(lp1640
g107
aI50
aa(lp1641
g109
aI3
aa(lp1642
g111
aI13
aatp1643
Rp1644
ag104
((lp1645
(lp1646
g107
aI50
aa(lp1647
g109
aI4
aa(lp1648
g111
aI10
aatp1649
Rp1650
ag104
((lp1651
(lp1652
g107
aI50
aa(lp1653
g109
aI6
aa(lp1654
g111
aI12
aatp1655
Rp1656
ag104
((lp1657
(lp1658
g107
aI50
aa(lp1659
g109
aI6
aa(lp1660
g111
aI17
aatp1661
Rp1662
aaF536.4198021888733
asg288
(lp1663
(lp1664
F0.69
aF0.71
aF0.73
aF0.7
aF0.72
aF0.69
aF0.73
aF0.76
aF0.72
aF0.74
aF0.7
aF0.72
aF0.71
aF0.69
aF0.72
aF0.73
aF0.72
aF0.7
aF0.74
aF0.71
aF0.73
aF0.74
aF0.7
aF0.7
aF0.67
aF0.72
aF0.71
aF0.72
aF0.7
aF0.7
aa(lp1665
g104
((lp1666
(lp1667
g107
aI200
aa(lp1668
g109
aI6
aa(lp1669
g111
aI5
aatp1670
Rp1671
ag104
((lp1672
(lp1673
g107
aI100
aa(lp1674
g109
aI3
aa(lp1675
g111
aI13
aatp1676
Rp1677
ag104
((lp1678
(lp1679
g107
aI50
aa(lp1680
g109
aI1
aa(lp1681
g111
aI12
aatp1682
Rp1683
ag104
((lp1684
(lp1685
g107
aI50
aa(lp1686
g109
aI6
aa(lp1687
g111
aI17
aatp1688
Rp1689
ag104
((lp1690
(lp1691
g107
aI50
aa(lp1692
g109
aI2
aa(lp1693
g111
aI14
aatp1694
Rp1695
ag104
((lp1696
(lp1697
g107
aI100
aa(lp1698
g109
aI3
aa(lp1699
g111
aI16
aatp1700
Rp1701
ag104
((lp1702
(lp1703
g107
aI50
aa(lp1704
g109
aI4
aa(lp1705
g111
aI11
aatp1706
Rp1707
ag104
((lp1708
(lp1709
g107
aI50
aa(lp1710
g109
aI4
aa(lp1711
g111
aI10
aatp1712
Rp1713
ag104
((lp1714
(lp1715
g107
aI100
aa(lp1716
g109
aI3
aa(lp1717
g111
aI11
aatp1718
Rp1719
ag104
((lp1720
(lp1721
g107
aI50
aa(lp1722
g109
aI3
aa(lp1723
g111
aI13
aatp1724
Rp1725
ag104
((lp1726
(lp1727
g107
aI50
aa(lp1728
g109
aI3
aa(lp1729
g111
aI5
aatp1730
Rp1731
ag104
((lp1732
(lp1733
g107
aI50
aa(lp1734
g109
aI3
aa(lp1735
g111
aI5
aatp1736
Rp1737
ag104
((lp1738
(lp1739
g107
aI100
aa(lp1740
g109
aI3
aa(lp1741
g111
aI15
aatp1742
Rp1743
ag104
((lp1744
(lp1745
g107
aI50
aa(lp1746
g109
aI3
aa(lp1747
g111
aI13
aatp1748
Rp1749
ag104
((lp1750
(lp1751
g107
aI50
aa(lp1752
g109
aI1
aa(lp1753
g111
aI15
aatp1754
Rp1755
ag104
((lp1756
(lp1757
g107
aI50
aa(lp1758
g109
aI3
aa(lp1759
g111
aI20
aatp1760
Rp1761
ag104
((lp1762
(lp1763
g107
aI100
aa(lp1764
g109
aI3
aa(lp1765
g111
aI15
aatp1766
Rp1767
ag104
((lp1768
(lp1769
g107
aI50
aa(lp1770
g109
aI3
aa(lp1771
g111
aI5
aatp1772
Rp1773
ag104
((lp1774
(lp1775
g107
aI50
aa(lp1776
g109
aI3
aa(lp1777
g111
aI13
aatp1778
Rp1779
ag104
((lp1780
(lp1781
g107
aI50
aa(lp1782
g109
aI3
aa(lp1783
g111
aI13
aatp1784
Rp1785
ag104
((lp1786
(lp1787
g107
aI50
aa(lp1788
g109
aI3
aa(lp1789
g111
aI5
aatp1790
Rp1791
ag104
((lp1792
(lp1793
g107
aI50
aa(lp1794
g109
aI6
aa(lp1795
g111
aI12
aatp1796
Rp1797
ag104
((lp1798
(lp1799
g107
aI50
aa(lp1800
g109
aI3
aa(lp1801
g111
aI15
aatp1802
Rp1803
ag104
((lp1804
(lp1805
g107
aI50
aa(lp1806
g109
aI4
aa(lp1807
g111
aI11
aatp1808
Rp1809
ag104
((lp1810
(lp1811
g107
aI50
aa(lp1812
g109
aI3
aa(lp1813
g111
aI13
aatp1814
Rp1815
ag104
((lp1816
(lp1817
g107
aI100
aa(lp1818
g109
aI3
aa(lp1819
g111
aI12
aatp1820
Rp1821
ag104
((lp1822
(lp1823
g107
aI50
aa(lp1824
g109
aI1
aa(lp1825
g111
aI18
aatp1826
Rp1827
ag104
((lp1828
(lp1829
g107
aI50
aa(lp1830
g109
aI3
aa(lp1831
g111
aI5
aatp1832
Rp1833
ag104
((lp1834
(lp1835
g107
aI100
aa(lp1836
g109
aI3
aa(lp1837
g111
aI16
aatp1838
Rp1839
ag104
((lp1840
(lp1841
g107
aI50
aa(lp1842
g109
aI3
aa(lp1843
g111
aI13
aatp1844
Rp1845
aaF518.6098699569702
assS'LR'
p1846
(dp1847
g3
(lp1848
(lp1849
g6
(g10
S'{\x14\xaeG\xe1z\xec?'
p1850
tp1851
Rp1852
ag6
(g10
S'=\n\xd7\xa3p=\xea?'
p1853
tp1854
Rp1855
ag6
(g10
S'ffffff\xee?'
p1856
tp1857
Rp1858
ag6
(g10
S'=\n\xd7\xa3p=\xea?'
p1859
tp1860
Rp1861
ag6
(g10
S'\\\x8f\xc2\xf5(\\\xef?'
p1862
tp1863
Rp1864
ag6
(g10
S'\xf6(\\\x8f\xc2\xf5\xe8?'
p1865
tp1866
Rp1867
aF1.0
ag6
(g10
S'\xcd\xcc\xcc\xcc\xcc\xcc\xec?'
p1868
tp1869
Rp1870
ag6
(g10
S'\xaeG\xe1z\x14\xae\xe7?'
p1871
tp1872
Rp1873
aF1.0
ag6
(g10
S')\\\x8f\xc2\xf5(\xec?'
p1874
tp1875
Rp1876
ag6
(g10
S'\x14\xaeG\xe1z\x14\xee?'
p1877
tp1878
Rp1879
ag6
(g10
S'\xb8\x1e\x85\xebQ\xb8\xee?'
p1880
tp1881
Rp1882
ag6
(g10
S'\x85\xebQ\xb8\x1e\x85\xeb?'
p1883
tp1884
Rp1885
aF1.0
ag6
(g10
S'\xb8\x1e\x85\xebQ\xb8\xee?'
p1886
tp1887
Rp1888
ag6
(g10
S'\\\x8f\xc2\xf5(\\\xef?'
p1889
tp1890
Rp1891
ag6
(g10
S'=\n\xd7\xa3p=\xea?'
p1892
tp1893
Rp1894
ag6
(g10
S'\xaeG\xe1z\x14\xae\xef?'
p1895
tp1896
Rp1897
ag6
(g10
S'333333\xeb?'
p1898
tp1899
Rp1900
aF1.0
ag6
(g10
S'=\n\xd7\xa3p=\xea?'
p1901
tp1902
Rp1903
ag6
(g10
S'\xb8\x1e\x85\xebQ\xb8\xee?'
p1904
tp1905
Rp1906
ag6
(g10
S'\x14\xaeG\xe1z\x14\xee?'
p1907
tp1908
Rp1909
ag6
(g10
S'\\\x8f\xc2\xf5(\\\xe7?'
p1910
tp1911
Rp1912
aF1.0
aF1.0
aF1.0
ag6
(g10
S'\x85\xebQ\xb8\x1e\x85\xeb?'
p1913
tp1914
Rp1915
ag6
(g10
S'\xaeG\xe1z\x14\xae\xef?'
p1916
tp1917
Rp1918
aa(lp1919
g104
((lp1920
(lp1921
g107
aI50
aa(lp1922
g109
aI3
aa(lp1923
g111
aI15
aatp1924
Rp1925
ag104
((lp1926
(lp1927
g107
aI50
aa(lp1928
g109
aI3
aa(lp1929
g111
aI13
aatp1930
Rp1931
ag104
((lp1932
(lp1933
g107
aI50
aa(lp1934
g109
aI6
aa(lp1935
g111
aI14
aatp1936
Rp1937
ag104
((lp1938
(lp1939
g107
aI50
aa(lp1940
g109
aI3
aa(lp1941
g111
aI13
aatp1942
Rp1943
ag104
((lp1944
(lp1945
g107
aI50
aa(lp1946
g109
aI3
aa(lp1947
g111
aI5
aatp1948
Rp1949
ag104
((lp1950
(lp1951
g107
aI50
aa(lp1952
g109
aI3
aa(lp1953
g111
aI13
aatp1954
Rp1955
ag104
((lp1956
(lp1957
g107
aI50
aa(lp1958
g109
aI3
aa(lp1959
g111
aI13
aatp1960
Rp1961
ag104
((lp1962
(lp1963
g107
aI50
aa(lp1964
g109
aI3
aa(lp1965
g111
aI13
aatp1966
Rp1967
ag104
((lp1968
(lp1969
g107
aI50
aa(lp1970
g109
aI3
aa(lp1971
g111
aI13
aatp1972
Rp1973
ag104
((lp1974
(lp1975
g107
aI50
aa(lp1976
g109
aI3
aa(lp1977
g111
aI13
aatp1978
Rp1979
ag104
((lp1980
(lp1981
g107
aI50
aa(lp1982
g109
aI4
aa(lp1983
g111
aI8
aatp1984
Rp1985
ag104
((lp1986
(lp1987
g107
aI50
aa(lp1988
g109
aI3
aa(lp1989
g111
aI13
aatp1990
Rp1991
ag104
((lp1992
(lp1993
g107
aI50
aa(lp1994
g109
aI3
aa(lp1995
g111
aI5
aatp1996
Rp1997
ag104
((lp1998
(lp1999
g107
aI50
aa(lp2000
g109
aI3
aa(lp2001
g111
aI13
aatp2002
Rp2003
ag104
((lp2004
(lp2005
g107
aI50
aa(lp2006
g109
aI3
aa(lp2007
g111
aI13
aatp2008
Rp2009
ag104
((lp2010
(lp2011
g107
aI50
aa(lp2012
g109
aI3
aa(lp2013
g111
aI13
aatp2014
Rp2015
ag104
((lp2016
(lp2017
g107
aI50
aa(lp2018
g109
aI3
aa(lp2019
g111
aI5
aatp2020
Rp2021
ag104
((lp2022
(lp2023
g107
aI50
aa(lp2024
g109
aI4
aa(lp2025
g111
aI21
aatp2026
Rp2027
ag104
((lp2028
(lp2029
g107
aI50
aa(lp2030
g109
aI3
aa(lp2031
g111
aI13
aatp2032
Rp2033
ag104
((lp2034
(lp2035
g107
aI50
aa(lp2036
g109
aI3
aa(lp2037
g111
aI13
aatp2038
Rp2039
ag104
((lp2040
(lp2041
g107
aI50
aa(lp2042
g109
aI3
aa(lp2043
g111
aI20
aatp2044
Rp2045
ag104
((lp2046
(lp2047
g107
aI50
aa(lp2048
g109
aI6
aa(lp2049
g111
aI14
aatp2050
Rp2051
ag104
((lp2052
(lp2053
g107
aI50
aa(lp2054
g109
aI3
aa(lp2055
g111
aI13
aatp2056
Rp2057
ag104
((lp2058
(lp2059
g107
aI50
aa(lp2060
g109
aI3
aa(lp2061
g111
aI5
aatp2062
Rp2063
ag104
((lp2064
(lp2065
g107
aI50
aa(lp2066
g109
aI3
aa(lp2067
g111
aI13
aatp2068
Rp2069
ag104
((lp2070
(lp2071
g107
aI50
aa(lp2072
g109
aI3
aa(lp2073
g111
aI13
aatp2074
Rp2075
ag104
((lp2076
(lp2077
g107
aI50
aa(lp2078
g109
aI3
aa(lp2079
g111
aI13
aatp2080
Rp2081
ag104
((lp2082
(lp2083
g107
aI50
aa(lp2084
g109
aI3
aa(lp2085
g111
aI13
aatp2086
Rp2087
ag104
((lp2088
(lp2089
g107
aI50
aa(lp2090
g109
aI3
aa(lp2091
g111
aI5
aatp2092
Rp2093
ag104
((lp2094
(lp2095
g107
aI50
aa(lp2096
g109
aI3
aa(lp2097
g111
aI13
aatp2098
Rp2099
aaF439.9442570209503
asg288
(lp2100
(lp2101
F0.74
aF0.72
aF0.74
aF0.73
aF0.73
aF0.74
aF0.72
aF0.74
aF0.69
aF0.67
aF0.67
aF0.69
aF0.67
aF0.74
aF0.66
aF0.67
aF0.7
aF0.67
aF0.66
aF0.74
aF0.74
aF0.74
aF0.74
aF0.73
aF0.74
aF0.74
aF0.67
aF0.69
aF0.66
aF0.66
aa(lp2102
g104
((lp2103
(lp2104
g107
aI50
aa(lp2105
g109
aI6
aa(lp2106
g111
aI17
aatp2107
Rp2108
ag104
((lp2109
(lp2110
g107
aI50
aa(lp2111
g109
aI6
aa(lp2112
g111
aI17
aatp2113
Rp2114
ag104
((lp2115
(lp2116
g107
aI50
aa(lp2117
g109
aI3
aa(lp2118
g111
aI13
aatp2119
Rp2120
ag104
((lp2121
(lp2122
g107
aI50
aa(lp2123
g109
aI3
aa(lp2124
g111
aI13
aatp2125
Rp2126
ag104
((lp2127
(lp2128
g107
aI50
aa(lp2129
g109
aI6
aa(lp2130
g111
aI12
aatp2131
Rp2132
ag104
((lp2133
(lp2134
g107
aI50
aa(lp2135
g109
aI1
aa(lp2136
g111
aI15
aatp2137
Rp2138
ag104
((lp2139
(lp2140
g107
aI50
aa(lp2141
g109
aI3
aa(lp2142
g111
aI13
aatp2143
Rp2144
ag104
((lp2145
(lp2146
g107
aI50
aa(lp2147
g109
aI3
aa(lp2148
g111
aI13
aatp2149
Rp2150
ag104
((lp2151
(lp2152
g107
aI400
aa(lp2153
g109
aI2
aa(lp2154
g111
aI19
aatp2155
Rp2156
ag104
((lp2157
(lp2158
g107
aI200
aa(lp2159
g109
aI4
aa(lp2160
g111
aI9
aatp2161
Rp2162
ag104
((lp2163
(lp2164
g107
aI200
aa(lp2165
g109
aI3
aa(lp2166
g111
aI11
aatp2167
Rp2168
ag104
((lp2169
(lp2170
g107
aI200
aa(lp2171
g109
aI2
aa(lp2172
g111
aI21
aatp2173
Rp2174
ag104
((lp2175
(lp2176
g107
aI400
aa(lp2177
g109
aI2
aa(lp2178
g111
aI19
aatp2179
Rp2180
ag104
((lp2181
(lp2182
g107
aI50
aa(lp2183
g109
aI3
aa(lp2184
g111
aI13
aatp2185
Rp2186
ag104
((lp2187
(lp2188
g107
aI200
aa(lp2189
g109
aI3
aa(lp2190
g111
aI5
aatp2191
Rp2192
ag104
((lp2193
(lp2194
g107
aI200
aa(lp2195
g109
aI2
aa(lp2196
g111
aI21
aatp2197
Rp2198
ag104
((lp2199
(lp2200
g107
aI200
aa(lp2201
g109
aI6
aa(lp2202
g111
aI18
aatp2203
Rp2204
ag104
((lp2205
(lp2206
g107
aI200
aa(lp2207
g109
aI6
aa(lp2208
g111
aI11
aatp2209
Rp2210
ag104
((lp2211
(lp2212
g107
aI400
aa(lp2213
g109
aI1
aa(lp2214
g111
aI5
aatp2215
Rp2216
ag104
((lp2217
(lp2218
g107
aI50
aa(lp2219
g109
aI1
aa(lp2220
g111
aI15
aatp2221
Rp2222
ag104
((lp2223
(lp2224
g107
aI50
aa(lp2225
g109
aI3
aa(lp2226
g111
aI5
aatp2227
Rp2228
ag104
((lp2229
(lp2230
g107
aI50
aa(lp2231
g109
aI6
aa(lp2232
g111
aI12
aatp2233
Rp2234
ag104
((lp2235
(lp2236
g107
aI50
aa(lp2237
g109
aI6
aa(lp2238
g111
aI12
aatp2239
Rp2240
ag104
((lp2241
(lp2242
g107
aI50
aa(lp2243
g109
aI2
aa(lp2244
g111
aI13
aatp2245
Rp2246
ag104
((lp2247
(lp2248
g107
aI50
aa(lp2249
g109
aI1
aa(lp2250
g111
aI10
aatp2251
Rp2252
ag104
((lp2253
(lp2254
g107
aI50
aa(lp2255
g109
aI3
aa(lp2256
g111
aI13
aatp2257
Rp2258
ag104
((lp2259
(lp2260
g107
aI200
aa(lp2261
g109
aI3
aa(lp2262
g111
aI5
aatp2263
Rp2264
ag104
((lp2265
(lp2266
g107
aI200
aa(lp2267
g109
aI6
aa(lp2268
g111
aI11
aatp2269
Rp2270
ag104
((lp2271
(lp2272
g107
aI200
aa(lp2273
g109
aI2
aa(lp2274
g111
aI21
aatp2275
Rp2276
ag104
((lp2277
(lp2278
g107
aI400
aa(lp2279
g109
aI2
aa(lp2280
g111
aI19
aatp2281
Rp2282
aaF282.47165989875793
assS'DT'
p2283
(dp2284
g3
(lp2285
(lp2286
g6
(g10
S')\\\x8f\xc2\xf5(\xdc?'
p2287
tp2288
Rp2289
ag6
(g10
S'\xf6(\\\x8f\xc2\xf5\xe0?'
p2290
tp2291
Rp2292
ag6
(g10
S'\xe1z\x14\xaeG\xe1\xda?'
p2293
tp2294
Rp2295
ag6
(g10
S'\\\x8f\xc2\xf5(\\\xdf?'
p2296
tp2297
Rp2298
ag6
(g10
S'\x85\xebQ\xb8\x1e\x85\xdb?'
p2299
tp2300
Rp2301
ag6
(g10
S'\xb8\x1e\x85\xebQ\xb8\xde?'
p2302
tp2303
Rp2304
ag6
(g10
S'\xb8\x1e\x85\xebQ\xb8\xde?'
p2305
tp2306
Rp2307
ag6
(g10
S'\xd7\xa3p=\n\xd7\xd3?'
p2308
tp2309
Rp2310
ag6
(g10
S'\xcd\xcc\xcc\xcc\xcc\xcc\xdc?'
p2311
tp2312
Rp2313
ag6
(g10
S'\xa4p=\n\xd7\xa3\xe0?'
p2314
tp2315
Rp2316
ag6
(g10
S'\n\xd7\xa3p=\n\xd7?'
p2317
tp2318
Rp2319
ag6
(g10
S'\xcd\xcc\xcc\xcc\xcc\xcc\xdc?'
p2320
tp2321
Rp2322
ag6
(g10
S'\x14\xaeG\xe1z\x14\xde?'
p2323
tp2324
Rp2325
ag6
(g10
S'q=\n\xd7\xa3p\xdd?'
p2326
tp2327
Rp2328
ag6
(g10
S'\x14\xaeG\xe1z\x14\xde?'
p2329
tp2330
Rp2331
ag6
(g10
S'q=\n\xd7\xa3p\xdd?'
p2332
tp2333
Rp2334
ag6
(g10
S'\xa4p=\n\xd7\xa3\xe0?'
p2335
tp2336
Rp2337
ag6
(g10
S')\\\x8f\xc2\xf5(\xe4?'
p2338
tp2339
Rp2340
ag6
(g10
S'\xb8\x1e\x85\xebQ\xb8\xde?'
p2341
tp2342
Rp2343
ag6
(g10
S'\xaeG\xe1z\x14\xae\xd7?'
p2344
tp2345
Rp2346
ag6
(g10
S'\x9a\x99\x99\x99\x99\x99\xd9?'
p2347
tp2348
Rp2349
ag6
(g10
S')\\\x8f\xc2\xf5(\xdc?'
p2350
tp2351
Rp2352
ag6
(g10
S'\x9a\x99\x99\x99\x99\x99\xe1?'
p2353
tp2354
Rp2355
ag6
(g10
S'\x8f\xc2\xf5(\\\x8f\xe2?'
p2356
tp2357
Rp2358
ag6
(g10
S'\xcd\xcc\xcc\xcc\xcc\xcc\xdc?'
p2359
tp2360
Rp2361
ag6
(g10
S'\x9a\x99\x99\x99\x99\x99\xe1?'
p2362
tp2363
Rp2364
ag6
(g10
S'\x14\xaeG\xe1z\x14\xde?'
p2365
tp2366
Rp2367
ag6
(g10
S'\xa4p=\n\xd7\xa3\xe0?'
p2368
tp2369
Rp2370
ag6
(g10
S'\x8f\xc2\xf5(\\\x8f\xe2?'
p2371
tp2372
Rp2373
ag6
(g10
S'\x00\x00\x00\x00\x00\x00\xe0?'
p2374
tp2375
Rp2376
aa(lp2377
g104
((lp2378
(lp2379
g107
aI400
aa(lp2380
g109
aI2
aa(lp2381
g111
aI19
aatp2382
Rp2383
ag104
((lp2384
(lp2385
g107
aI50
aa(lp2386
g109
aI3
aa(lp2387
g111
aI20
aatp2388
Rp2389
ag104
((lp2390
(lp2391
g107
aI50
aa(lp2392
g109
aI6
aa(lp2393
g111
aI12
aatp2394
Rp2395
ag104
((lp2396
(lp2397
g107
aI50
aa(lp2398
g109
aI3
aa(lp2399
g111
aI13
aatp2400
Rp2401
ag104
((lp2402
(lp2403
g107
aI50
aa(lp2404
g109
aI3
aa(lp2405
g111
aI6
aatp2406
Rp2407
ag104
((lp2408
(lp2409
g107
aI50
aa(lp2410
g109
aI1
aa(lp2411
g111
aI17
aatp2412
Rp2413
ag104
((lp2414
(lp2415
g107
aI50
aa(lp2416
g109
aI5
aa(lp2417
g111
aI11
aatp2418
Rp2419
ag104
((lp2420
(lp2421
g107
aI400
aa(lp2422
g109
aI3
aa(lp2423
g111
aI6
aatp2424
Rp2425
ag104
((lp2426
(lp2427
g107
aI50
aa(lp2428
g109
aI3
aa(lp2429
g111
aI13
aatp2430
Rp2431
ag104
((lp2432
(lp2433
g107
aI50
aa(lp2434
g109
aI5
aa(lp2435
g111
aI11
aatp2436
Rp2437
ag104
((lp2438
(lp2439
g107
aI50
aa(lp2440
g109
aI3
aa(lp2441
g111
aI15
aatp2442
Rp2443
ag104
((lp2444
(lp2445
g107
aI50
aa(lp2446
g109
aI6
aa(lp2447
g111
aI12
aatp2448
Rp2449
ag104
((lp2450
(lp2451
g107
aI400
aa(lp2452
g109
aI1
aa(lp2453
g111
aI15
aatp2454
Rp2455
ag104
((lp2456
(lp2457
g107
aI50
aa(lp2458
g109
aI3
aa(lp2459
g111
aI13
aatp2460
Rp2461
ag104
((lp2462
(lp2463
g107
aI400
aa(lp2464
g109
aI1
aa(lp2465
g111
aI11
aatp2466
Rp2467
ag104
((lp2468
(lp2469
g107
aI50
aa(lp2470
g109
aI2
aa(lp2471
g111
aI7
aatp2472
Rp2473
ag104
((lp2474
(lp2475
g107
aI50
aa(lp2476
g109
aI5
aa(lp2477
g111
aI5
aatp2478
Rp2479
ag104
((lp2480
(lp2481
g107
aI50
aa(lp2482
g109
aI4
aa(lp2483
g111
aI16
aatp2484
Rp2485
ag104
((lp2486
(lp2487
g107
aI50
aa(lp2488
g109
aI3
aa(lp2489
g111
aI13
aatp2490
Rp2491
ag104
((lp2492
(lp2493
g107
aI400
aa(lp2494
g109
aI6
aa(lp2495
g111
aI21
aatp2496
Rp2497
ag104
((lp2498
(lp2499
g107
aI50
aa(lp2500
g109
aI6
aa(lp2501
g111
aI17
aatp2502
Rp2503
ag104
((lp2504
(lp2505
g107
aI50
aa(lp2506
g109
aI2
aa(lp2507
g111
aI13
aatp2508
Rp2509
ag104
((lp2510
(lp2511
g107
aI400
aa(lp2512
g109
aI5
aa(lp2513
g111
aI13
aatp2514
Rp2515
ag104
((lp2516
(lp2517
g107
aI50
aa(lp2518
g109
aI1
aa(lp2519
g111
aI20
aatp2520
Rp2521
ag104
((lp2522
(lp2523
g107
aI50
aa(lp2524
g109
aI1
aa(lp2525
g111
aI10
aatp2526
Rp2527
ag104
((lp2528
(lp2529
g107
aI50
aa(lp2530
g109
aI6
aa(lp2531
g111
aI7
aatp2532
Rp2533
ag104
((lp2534
(lp2535
g107
aI400
aa(lp2536
g109
aI5
aa(lp2537
g111
aI12
aatp2538
Rp2539
ag104
((lp2540
(lp2541
g107
aI50
aa(lp2542
g109
aI3
aa(lp2543
g111
aI6
aatp2544
Rp2545
ag104
((lp2546
(lp2547
g107
aI50
aa(lp2548
g109
aI6
aa(lp2549
g111
aI17
aatp2550
Rp2551
ag104
((lp2552
(lp2553
g107
aI50
aa(lp2554
g109
aI5
aa(lp2555
g111
aI15
aatp2556
Rp2557
aaF420.0851540565491
asg288
(lp2558
(lp2559
F0.73
aF0.59
aF0.62
aF0.67
aF0.7
aF0.69
aF0.73
aF0.71
aF0.67
aF0.72
aF0.73
aF0.71
aF0.7
aF0.63
aF0.72
aF0.74
aF0.72
aF0.74
aF0.72
aF0.73
aF0.71
aF0.74
aF0.73
aF0.71
aF0.71
aF0.67
aF0.71
aF0.6
aF0.71
aF0.73
aa(lp2560
g104
((lp2561
(lp2562
g107
aI50
aa(lp2563
g109
aI3
aa(lp2564
g111
aI20
aatp2565
Rp2566
ag104
((lp2567
(lp2568
g107
aI100
aa(lp2569
g109
aI4
aa(lp2570
g111
aI17
aatp2571
Rp2572
ag104
((lp2573
(lp2574
g107
aI50
aa(lp2575
g109
aI5
aa(lp2576
g111
aI8
aatp2577
Rp2578
ag104
((lp2579
(lp2580
g107
aI50
aa(lp2581
g109
aI3
aa(lp2582
g111
aI5
aatp2583
Rp2584
ag104
((lp2585
(lp2586
g107
aI50
aa(lp2587
g109
aI3
aa(lp2588
g111
aI5
aatp2589
Rp2590
ag104
((lp2591
(lp2592
g107
aI50
aa(lp2593
g109
aI3
aa(lp2594
g111
aI13
aatp2595
Rp2596
ag104
((lp2597
(lp2598
g107
aI100
aa(lp2599
g109
aI3
aa(lp2600
g111
aI12
aatp2601
Rp2602
ag104
((lp2603
(lp2604
g107
aI50
aa(lp2605
g109
aI3
aa(lp2606
g111
aI13
aatp2607
Rp2608
ag104
((lp2609
(lp2610
g107
aI50
aa(lp2611
g109
aI4
aa(lp2612
g111
aI10
aatp2613
Rp2614
ag104
((lp2615
(lp2616
g107
aI50
aa(lp2617
g109
aI3
aa(lp2618
g111
aI5
aatp2619
Rp2620
ag104
((lp2621
(lp2622
g107
aI50
aa(lp2623
g109
aI4
aa(lp2624
g111
aI11
aatp2625
Rp2626
ag104
((lp2627
(lp2628
g107
aI50
aa(lp2629
g109
aI3
aa(lp2630
g111
aI5
aatp2631
Rp2632
ag104
((lp2633
(lp2634
g107
aI50
aa(lp2635
g109
aI1
aa(lp2636
g111
aI19
aatp2637
Rp2638
ag104
((lp2639
(lp2640
g107
aI100
aa(lp2641
g109
aI3
aa(lp2642
g111
aI7
aatp2643
Rp2644
ag104
((lp2645
(lp2646
g107
aI50
aa(lp2647
g109
aI1
aa(lp2648
g111
aI14
aatp2649
Rp2650
ag104
((lp2651
(lp2652
g107
aI50
aa(lp2653
g109
aI3
aa(lp2654
g111
aI5
aatp2655
Rp2656
ag104
((lp2657
(lp2658
g107
aI50
aa(lp2659
g109
aI4
aa(lp2660
g111
aI20
aatp2661
Rp2662
ag104
((lp2663
(lp2664
g107
aI50
aa(lp2665
g109
aI4
aa(lp2666
g111
aI10
aatp2667
Rp2668
ag104
((lp2669
(lp2670
g107
aI50
aa(lp2671
g109
aI3
aa(lp2672
g111
aI21
aatp2673
Rp2674
ag104
((lp2675
(lp2676
g107
aI50
aa(lp2677
g109
aI3
aa(lp2678
g111
aI20
aatp2679
Rp2680
ag104
((lp2681
(lp2682
g107
aI50
aa(lp2683
g109
aI3
aa(lp2684
g111
aI13
aatp2685
Rp2686
ag104
((lp2687
(lp2688
g107
aI50
aa(lp2689
g109
aI3
aa(lp2690
g111
aI13
aatp2691
Rp2692
ag104
((lp2693
(lp2694
g107
aI50
aa(lp2695
g109
aI3
aa(lp2696
g111
aI13
aatp2697
Rp2698
ag104
((lp2699
(lp2700
g107
aI100
aa(lp2701
g109
aI5
aa(lp2702
g111
aI8
aatp2703
Rp2704
ag104
((lp2705
(lp2706
g107
aI50
aa(lp2707
g109
aI3
aa(lp2708
g111
aI13
aatp2709
Rp2710
ag104
((lp2711
(lp2712
g107
aI100
aa(lp2713
g109
aI3
aa(lp2714
g111
aI13
aatp2715
Rp2716
ag104
((lp2717
(lp2718
g107
aI50
aa(lp2719
g109
aI2
aa(lp2720
g111
aI21
aatp2721
Rp2722
ag104
((lp2723
(lp2724
g107
aI100
aa(lp2725
g109
aI6
aa(lp2726
g111
aI5
aatp2727
Rp2728
ag104
((lp2729
(lp2730
g107
aI50
aa(lp2731
g109
aI5
aa(lp2732
g111
aI18
aatp2733
Rp2734
ag104
((lp2735
(lp2736
g107
aI50
aa(lp2737
g109
aI5
aa(lp2738
g111
aI11
aatp2739
Rp2740
aaF421.460107088089
ass.