(dp0
S'KNN'
p1
(dp2
S'd2h'
p3
(lp4
(lp5
F1.0
aF1.0
aF1.0
aF1.0
aF1.0
acnumpy.core.multiarray
scalar
p6
(cnumpy
dtype
p7
(S'f8'
p8
I0
I1
tp9
Rp10
(I3
S'<'
p11
NNNI-1
I-1
I0
tp12
bS'\x9a\x99\x99\x99\x99\x99\xd9?'
p13
tp14
Rp15
aF1.0
aF1.0
aF1.0
ag6
(g10
S'333333\xd3?'
p16
tp17
Rp18
aF1.0
aF1.0
aF1.0
ag6
(g10
S'\xa4p=\n\xd7\xa3\xc0?'
p19
tp20
Rp21
ag6
(g10
S'\x8f\xc2\xf5(\\\x8f\xea?'
p22
tp23
Rp24
aF1.0
aF1.0
aF1.0
ag6
(g10
S'=\n\xd7\xa3p=\xda?'
p25
tp26
Rp27
aF1.0
aF1.0
aF1.0
ag6
(g10
S'\x8f\xc2\xf5(\\\x8f\xea?'
p28
tp29
Rp30
aF1.0
aF1.0
ag6
(g10
S'\x8f\xc2\xf5(\\\x8f\xea?'
p31
tp32
Rp33
aF1.0
aF1.0
aF1.0
aF1.0
aa(lp34
ccollections
OrderedDict
p35
((lp36
(lp37
S'm'
p38
aI50
aa(lp39
S'r'
p40
aI4
aa(lp41
S'k'
p42
aI10
aatp43
Rp44
ag35
((lp45
(lp46
g38
aI50
aa(lp47
g40
aI3
aa(lp48
g42
aI13
aatp49
Rp50
ag35
((lp51
(lp52
g38
aI50
aa(lp53
g40
aI6
aa(lp54
g42
aI14
aatp55
Rp56
ag35
((lp57
(lp58
g38
aI50
aa(lp59
g40
aI3
aa(lp60
g42
aI13
aatp61
Rp62
ag35
((lp63
(lp64
g38
aI50
aa(lp65
g40
aI3
aa(lp66
g42
aI13
aatp67
Rp68
ag35
((lp69
(lp70
g38
aI50
aa(lp71
g40
aI6
aa(lp72
g42
aI14
aatp73
Rp74
ag35
((lp75
(lp76
g38
aI50
aa(lp77
g40
aI3
aa(lp78
g42
aI5
aatp79
Rp80
ag35
((lp81
(lp82
g38
aI50
aa(lp83
g40
aI3
aa(lp84
g42
aI13
aatp85
Rp86
ag35
((lp87
(lp88
g38
aI50
aa(lp89
g40
aI3
aa(lp90
g42
aI13
aatp91
Rp92
ag35
((lp93
(lp94
g38
aI50
aa(lp95
g40
aI3
aa(lp96
g42
aI13
aatp97
Rp98
ag35
((lp99
(lp100
g38
aI50
aa(lp101
g40
aI3
aa(lp102
g42
aI20
aatp103
Rp104
ag35
((lp105
(lp106
g38
aI50
aa(lp107
g40
aI3
aa(lp108
g42
aI13
aatp109
Rp110
ag35
((lp111
(lp112
g38
aI50
aa(lp113
g40
aI3
aa(lp114
g42
aI13
aatp115
Rp116
ag35
((lp117
(lp118
g38
aI50
aa(lp119
g40
aI3
aa(lp120
g42
aI5
aatp121
Rp122
ag35
((lp123
(lp124
g38
aI50
aa(lp125
g40
aI3
aa(lp126
g42
aI5
aatp127
Rp128
ag35
((lp129
(lp130
g38
aI50
aa(lp131
g40
aI3
aa(lp132
g42
aI13
aatp133
Rp134
ag35
((lp135
(lp136
g38
aI50
aa(lp137
g40
aI3
aa(lp138
g42
aI13
aatp139
Rp140
ag35
((lp141
(lp142
g38
aI50
aa(lp143
g40
aI3
aa(lp144
g42
aI5
aatp145
Rp146
ag35
((lp147
(lp148
g38
aI50
aa(lp149
g40
aI3
aa(lp150
g42
aI13
aatp151
Rp152
ag35
((lp153
(lp154
g38
aI50
aa(lp155
g40
aI3
aa(lp156
g42
aI13
aatp157
Rp158
ag35
((lp159
(lp160
g38
aI50
aa(lp161
g40
aI5
aa(lp162
g42
aI11
aatp163
Rp164
ag35
((lp165
(lp166
g38
aI50
aa(lp167
g40
aI3
aa(lp168
g42
aI13
aatp169
Rp170
ag35
((lp171
(lp172
g38
aI50
aa(lp173
g40
aI3
aa(lp174
g42
aI13
aatp175
Rp176
ag35
((lp177
(lp178
g38
aI50
aa(lp179
g40
aI3
aa(lp180
g42
aI13
aatp181
Rp182
ag35
((lp183
(lp184
g38
aI50
aa(lp185
g40
aI3
aa(lp186
g42
aI5
aatp187
Rp188
ag35
((lp189
(lp190
g38
aI50
aa(lp191
g40
aI3
aa(lp192
g42
aI13
aatp193
Rp194
ag35
((lp195
(lp196
g38
aI50
aa(lp197
g40
aI6
aa(lp198
g42
aI14
aatp199
Rp200
ag35
((lp201
(lp202
g38
aI50
aa(lp203
g40
aI5
aa(lp204
g42
aI11
aatp205
Rp206
ag35
((lp207
(lp208
g38
aI50
aa(lp209
g40
aI3
aa(lp210
g42
aI13
aatp211
Rp212
ag35
((lp213
(lp214
g38
aI50
aa(lp215
g40
aI3
aa(lp216
g42
aI13
aatp217
Rp218
aaF1518.5066239833832
asS'popt20'
p219
(lp220
(lp221
F1.0
aF0.96
aF0.99
aF1.0
aF1.0
aF0.94
aF1.0
aF0.97
aF0.98
aF1.0
aF1.0
aF0.99
aF0.85
aF0.97
aF0.99
aF0.93
aF1.0
aF1.0
aF1.0
aF0.99
aF1.0
aF1.0
aF1.0
aF1.0
aF1.0
aF1.0
aF0.99
aF1.0
aF0.99
aF1.0
aa(lp222
g35
((lp223
(lp224
g38
aI50
aa(lp225
g40
aI3
aa(lp226
g42
aI13
aatp227
Rp228
ag35
((lp229
(lp230
g38
aI50
aa(lp231
g40
aI3
aa(lp232
g42
aI13
aatp233
Rp234
ag35
((lp235
(lp236
g38
aI50
aa(lp237
g40
aI3
aa(lp238
g42
aI13
aatp239
Rp240
ag35
((lp241
(lp242
g38
aI50
aa(lp243
g40
aI3
aa(lp244
g42
aI13
aatp245
Rp246
ag35
((lp247
(lp248
g38
aI50
aa(lp249
g40
aI5
aa(lp250
g42
aI11
aatp251
Rp252
ag35
((lp253
(lp254
g38
aI100
aa(lp255
g40
aI6
aa(lp256
g42
aI14
aatp257
Rp258
ag35
((lp259
(lp260
g38
aI50
aa(lp261
g40
aI3
aa(lp262
g42
aI5
aatp263
Rp264
ag35
((lp265
(lp266
g38
aI100
aa(lp267
g40
aI6
aa(lp268
g42
aI14
aatp269
Rp270
ag35
((lp271
(lp272
g38
aI50
aa(lp273
g40
aI3
aa(lp274
g42
aI13
aatp275
Rp276
ag35
((lp277
(lp278
g38
aI50
aa(lp279
g40
aI3
aa(lp280
g42
aI13
aatp281
Rp282
ag35
((lp283
(lp284
g38
aI50
aa(lp285
g40
aI3
aa(lp286
g42
aI13
aatp287
Rp288
ag35
((lp289
(lp290
g38
aI50
aa(lp291
g40
aI3
aa(lp292
g42
aI13
aatp293
Rp294
ag35
((lp295
(lp296
g38
aI200
aa(lp297
g40
aI1
aa(lp298
g42
aI6
aatp299
Rp300
ag35
((lp301
(lp302
g38
aI100
aa(lp303
g40
aI3
aa(lp304
g42
aI12
aatp305
Rp306
ag35
((lp307
(lp308
g38
aI100
aa(lp309
g40
aI4
aa(lp310
g42
aI17
aatp311
Rp312
ag35
((lp313
(lp314
g38
aI100
aa(lp315
g40
aI3
aa(lp316
g42
aI15
aatp317
Rp318
ag35
((lp319
(lp320
g38
aI50
aa(lp321
g40
aI3
aa(lp322
g42
aI13
aatp323
Rp324
ag35
((lp325
(lp326
g38
aI50
aa(lp327
g40
aI6
aa(lp328
g42
aI12
aatp329
Rp330
ag35
((lp331
(lp332
g38
aI50
aa(lp333
g40
aI3
aa(lp334
g42
aI5
aatp335
Rp336
ag35
((lp337
(lp338
g38
aI50
aa(lp339
g40
aI3
aa(lp340
g42
aI13
aatp341
Rp342
ag35
((lp343
(lp344
g38
aI50
aa(lp345
g40
aI3
aa(lp346
g42
aI13
aatp347
Rp348
ag35
((lp349
(lp350
g38
aI50
aa(lp351
g40
aI3
aa(lp352
g42
aI13
aatp353
Rp354
ag35
((lp355
(lp356
g38
aI50
aa(lp357
g40
aI4
aa(lp358
g42
aI13
aatp359
Rp360
ag35
((lp361
(lp362
g38
aI50
aa(lp363
g40
aI3
aa(lp364
g42
aI13
aatp365
Rp366
ag35
((lp367
(lp368
g38
aI50
aa(lp369
g40
aI3
aa(lp370
g42
aI5
aatp371
Rp372
ag35
((lp373
(lp374
g38
aI50
aa(lp375
g40
aI5
aa(lp376
g42
aI11
aatp377
Rp378
ag35
((lp379
(lp380
g38
aI50
aa(lp381
g40
aI3
aa(lp382
g42
aI13
aatp383
Rp384
ag35
((lp385
(lp386
g38
aI50
aa(lp387
g40
aI3
aa(lp388
g42
aI5
aatp389
Rp390
ag35
((lp391
(lp392
g38
aI50
aa(lp393
g40
aI6
aa(lp394
g42
aI17
aatp395
Rp396
ag35
((lp397
(lp398
g38
aI50
aa(lp399
g40
aI3
aa(lp400
g42
aI13
aatp401
Rp402
aaF1274.0477619171143
assS'SVM'
p403
(dp404
g3
(lp405
(lp406
g6
(g10
S'\x00\x00\x00\x00\x00\x00\xf4?'
p407
tp408
Rp409
aF1.0
aF1.0
aF1.01
aF1.0
aF1.0
aF1.0
ag6
(g10
S'\x8f\xc2\xf5(\\\x8f\xea?'
p410
tp411
Rp412
ag6
(g10
S'\xe1z\x14\xaeG\xe1\xea?'
p413
tp414
Rp415
ag6
(g10
S'\xd7\xa3p=\n\xd7\xeb?'
p416
tp417
Rp418
ag6
(g10
S'\xd7\xa3p=\n\xd7\xd3?'
p419
tp420
Rp421
aF1.01
ag6
(g10
S'{\x14\xaeG\xe1z\xb4?'
p422
tp423
Rp424
aF1.0
ag6
(g10
S'\x8f\xc2\xf5(\\\x8f\xea?'
p425
tp426
Rp427
ag6
(g10
S'\xcd\xcc\xcc\xcc\xcc\xcc\xf4?'
p428
tp429
Rp430
aF1.0
ag6
(g10
S'\xe1z\x14\xaeG\xe1\xea?'
p431
tp432
Rp433
aF1.02
aF1.0
aF1.02
aF1.0
aF1.0
aF1.05
ag6
(g10
S'\x8f\xc2\xf5(\\\x8f\xea?'
p434
tp435
Rp436
aF1.0
ag6
(g10
S'ffffff\xe6?'
p437
tp438
Rp439
aF1.0
aF1.0
aF1.0
aa(lp440
g35
((lp441
(lp442
g38
aI50
aa(lp443
g40
aI3
aa(lp444
g42
aI13
aatp445
Rp446
ag35
((lp447
(lp448
g38
aI50
aa(lp449
g40
aI3
aa(lp450
g42
aI20
aatp451
Rp452
ag35
((lp453
(lp454
g38
aI50
aa(lp455
g40
aI3
aa(lp456
g42
aI5
aatp457
Rp458
ag35
((lp459
(lp460
g38
aI50
aa(lp461
g40
aI3
aa(lp462
g42
aI13
aatp463
Rp464
ag35
((lp465
(lp466
g38
aI50
aa(lp467
g40
aI3
aa(lp468
g42
aI13
aatp469
Rp470
ag35
((lp471
(lp472
g38
aI50
aa(lp473
g40
aI3
aa(lp474
g42
aI5
aatp475
Rp476
ag35
((lp477
(lp478
g38
aI50
aa(lp479
g40
aI5
aa(lp480
g42
aI11
aatp481
Rp482
ag35
((lp483
(lp484
g38
aI50
aa(lp485
g40
aI3
aa(lp486
g42
aI5
aatp487
Rp488
ag35
((lp489
(lp490
g38
aI50
aa(lp491
g40
aI3
aa(lp492
g42
aI5
aatp493
Rp494
ag35
((lp495
(lp496
g38
aI50
aa(lp497
g40
aI3
aa(lp498
g42
aI13
aatp499
Rp500
ag35
((lp501
(lp502
g38
aI50
aa(lp503
g40
aI6
aa(lp504
g42
aI11
aatp505
Rp506
ag35
((lp507
(lp508
g38
aI50
aa(lp509
g40
aI3
aa(lp510
g42
aI10
aatp511
Rp512
ag35
((lp513
(lp514
g38
aI100
aa(lp515
g40
aI3
aa(lp516
g42
aI7
aatp517
Rp518
ag35
((lp519
(lp520
g38
aI50
aa(lp521
g40
aI3
aa(lp522
g42
aI13
aatp523
Rp524
ag35
((lp525
(lp526
g38
aI50
aa(lp527
g40
aI6
aa(lp528
g42
aI17
aatp529
Rp530
ag35
((lp531
(lp532
g38
aI50
aa(lp533
g40
aI3
aa(lp534
g42
aI13
aatp535
Rp536
ag35
((lp537
(lp538
g38
aI50
aa(lp539
g40
aI1
aa(lp540
g42
aI15
aatp541
Rp542
ag35
((lp543
(lp544
g38
aI50
aa(lp545
g40
aI5
aa(lp546
g42
aI11
aatp547
Rp548
ag35
((lp549
(lp550
g38
aI50
aa(lp551
g40
aI5
aa(lp552
g42
aI18
aatp553
Rp554
ag35
((lp555
(lp556
g38
aI50
aa(lp557
g40
aI3
aa(lp558
g42
aI5
aatp559
Rp560
ag35
((lp561
(lp562
g38
aI50
aa(lp563
g40
aI1
aa(lp564
g42
aI15
aatp565
Rp566
ag35
((lp567
(lp568
g38
aI50
aa(lp569
g40
aI2
aa(lp570
g42
aI5
aatp571
Rp572
ag35
((lp573
(lp574
g38
aI50
aa(lp575
g40
aI3
aa(lp576
g42
aI13
aatp577
Rp578
ag35
((lp579
(lp580
g38
aI50
aa(lp581
g40
aI3
aa(lp582
g42
aI13
aatp583
Rp584
ag35
((lp585
(lp586
g38
aI50
aa(lp587
g40
aI5
aa(lp588
g42
aI11
aatp589
Rp590
ag35
((lp591
(lp592
g38
aI100
aa(lp593
g40
aI6
aa(lp594
g42
aI14
aatp595
Rp596
ag35
((lp597
(lp598
g38
aI50
aa(lp599
g40
aI2
aa(lp600
g42
aI17
aatp601
Rp602
ag35
((lp603
(lp604
g38
aI50
aa(lp605
g40
aI3
aa(lp606
g42
aI13
aatp607
Rp608
ag35
((lp609
(lp610
g38
aI50
aa(lp611
g40
aI1
aa(lp612
g42
aI15
aatp613
Rp614
ag35
((lp615
(lp616
g38
aI100
aa(lp617
g40
aI6
aa(lp618
g42
aI14
aatp619
Rp620
aaF1018.6500718593597
asg219
(lp621
(lp622
F1.0
aF0.98
aF0.96
aF0.96
aF0.96
aF1.0
aF0.99
aF0.88
aF1.0
aF0.98
aF0.98
aF0.98
aF0.94
aF1.0
aF0.98
aF0.96
aF1.0
aF0.98
aF0.98
aF0.98
aF0.93
aF0.9
aF1.0
aF0.96
aF0.93
aF1.0
aF0.96
aF0.92
aF0.98
aF0.94
aa(lp623
g35
((lp624
(lp625
g38
aI50
aa(lp626
g40
aI6
aa(lp627
g42
aI17
aatp628
Rp629
ag35
((lp630
(lp631
g38
aI50
aa(lp632
g40
aI3
aa(lp633
g42
aI13
aatp634
Rp635
ag35
((lp636
(lp637
g38
aI100
aa(lp638
g40
aI1
aa(lp639
g42
aI18
aatp640
Rp641
ag35
((lp642
(lp643
g38
aI200
aa(lp644
g40
aI5
aa(lp645
g42
aI6
aatp646
Rp647
ag35
((lp648
(lp649
g38
aI50
aa(lp650
g40
aI6
aa(lp651
g42
aI17
aatp652
Rp653
ag35
((lp654
(lp655
g38
aI50
aa(lp656
g40
aI3
aa(lp657
g42
aI13
aatp658
Rp659
ag35
((lp660
(lp661
g38
aI100
aa(lp662
g40
aI3
aa(lp663
g42
aI12
aatp664
Rp665
ag35
((lp666
(lp667
g38
aI100
aa(lp668
g40
aI6
aa(lp669
g42
aI14
aatp670
Rp671
ag35
((lp672
(lp673
g38
aI200
aa(lp674
g40
aI4
aa(lp675
g42
aI14
aatp676
Rp677
ag35
((lp678
(lp679
g38
aI50
aa(lp680
g40
aI3
aa(lp681
g42
aI13
aatp682
Rp683
ag35
((lp684
(lp685
g38
aI50
aa(lp686
g40
aI3
aa(lp687
g42
aI13
aatp688
Rp689
ag35
((lp690
(lp691
g38
aI100
aa(lp692
g40
aI5
aa(lp693
g42
aI20
aatp694
Rp695
ag35
((lp696
(lp697
g38
aI100
aa(lp698
g40
aI3
aa(lp699
g42
aI17
aatp700
Rp701
ag35
((lp702
(lp703
g38
aI100
aa(lp704
g40
aI4
aa(lp705
g42
aI21
aatp706
Rp707
ag35
((lp708
(lp709
g38
aI200
aa(lp710
g40
aI6
aa(lp711
g42
aI11
aatp712
Rp713
ag35
((lp714
(lp715
g38
aI50
aa(lp716
g40
aI3
aa(lp717
g42
aI13
aatp718
Rp719
ag35
((lp720
(lp721
g38
aI100
aa(lp722
g40
aI1
aa(lp723
g42
aI9
aatp724
Rp725
ag35
((lp726
(lp727
g38
aI100
aa(lp728
g40
aI3
aa(lp729
g42
aI13
aatp730
Rp731
ag35
((lp732
(lp733
g38
aI50
aa(lp734
g40
aI3
aa(lp735
g42
aI13
aatp736
Rp737
ag35
((lp738
(lp739
g38
aI50
aa(lp740
g40
aI1
aa(lp741
g42
aI15
aatp742
Rp743
ag35
((lp744
(lp745
g38
aI50
aa(lp746
g40
aI3
aa(lp747
g42
aI13
aatp748
Rp749
ag35
((lp750
(lp751
g38
aI200
aa(lp752
g40
aI2
aa(lp753
g42
aI21
aatp754
Rp755
ag35
((lp756
(lp757
g38
aI50
aa(lp758
g40
aI3
aa(lp759
g42
aI13
aatp760
Rp761
ag35
((lp762
(lp763
g38
aI50
aa(lp764
g40
aI3
aa(lp765
g42
aI5
aatp766
Rp767
ag35
((lp768
(lp769
g38
aI200
aa(lp770
g40
aI6
aa(lp771
g42
aI11
aatp772
Rp773
ag35
((lp774
(lp775
g38
aI50
aa(lp776
g40
aI6
aa(lp777
g42
aI12
aatp778
Rp779
ag35
((lp780
(lp781
g38
aI100
aa(lp782
g40
aI3
aa(lp783
g42
aI12
aatp784
Rp785
ag35
((lp786
(lp787
g38
aI100
aa(lp788
g40
aI3
aa(lp789
g42
aI12
aatp790
Rp791
ag35
((lp792
(lp793
g38
aI100
aa(lp794
g40
aI2
aa(lp795
g42
aI19
aatp796
Rp797
ag35
((lp798
(lp799
g38
aI100
aa(lp800
g40
aI4
aa(lp801
g42
aI17
aatp802
Rp803
aaF815.7652969360352
assS'NB'
p804
(dp805
g3
(lp806
(lp807
g6
(g10
S'\x00\x00\x00\x00\x00\x00\xe0?'
p808
tp809
Rp810
ag6
(g10
S'\x9a\x99\x99\x99\x99\x99\xe1?'
p811
tp812
Rp813
ag6
(g10
S'\xecQ\xb8\x1e\x85\xeb\xe1?'
p814
tp815
Rp816
ag6
(g10
S'\x85\xebQ\xb8\x1e\x85\xdb?'
p817
tp818
Rp819
ag6
(g10
S'\\\x8f\xc2\xf5(\\\xdf?'
p820
tp821
Rp822
ag6
(g10
S'333333\xe3?'
p823
tp824
Rp825
ag6
(g10
S'\xb8\x1e\x85\xebQ\xb8\xde?'
p826
tp827
Rp828
ag6
(g10
S'\xf6(\\\x8f\xc2\xf5\xe0?'
p829
tp830
Rp831
ag6
(g10
S'q=\n\xd7\xa3p\xdd?'
p832
tp833
Rp834
ag6
(g10
S'\\\x8f\xc2\xf5(\\\xdf?'
p835
tp836
Rp837
ag6
(g10
S'\\\x8f\xc2\xf5(\\\xdf?'
p838
tp839
Rp840
ag6
(g10
S'=\n\xd7\xa3p=\xda?'
p841
tp842
Rp843
ag6
(g10
S'=\n\xd7\xa3p=\xe2?'
p844
tp845
Rp846
ag6
(g10
S'R\xb8\x1e\x85\xebQ\xe0?'
p847
tp848
Rp849
ag6
(g10
S'\xecQ\xb8\x1e\x85\xeb\xe1?'
p850
tp851
Rp852
ag6
(g10
S'\x85\xebQ\xb8\x1e\x85\xdb?'
p853
tp854
Rp855
ag6
(g10
S'333333\xd3?'
p856
tp857
Rp858
ag6
(g10
S'=\n\xd7\xa3p=\xda?'
p859
tp860
Rp861
ag6
(g10
S'\x9a\x99\x99\x99\x99\x99\xd9?'
p862
tp863
Rp864
ag6
(g10
S'\x00\x00\x00\x00\x00\x00\xe0?'
p865
tp866
Rp867
ag6
(g10
S'\x00\x00\x00\x00\x00\x00\xe0?'
p868
tp869
Rp870
ag6
(g10
S'\xa4p=\n\xd7\xa3\xe0?'
p871
tp872
Rp873
ag6
(g10
S'\xe1z\x14\xaeG\xe1\xda?'
p874
tp875
Rp876
ag6
(g10
S'\x00\x00\x00\x00\x00\x00\xe0?'
p877
tp878
Rp879
ag6
(g10
S'\xa4p=\n\xd7\xa3\xe0?'
p880
tp881
Rp882
ag6
(g10
S'R\xb8\x1e\x85\xebQ\xe0?'
p883
tp884
Rp885
ag6
(g10
S'R\xb8\x1e\x85\xebQ\xd8?'
p886
tp887
Rp888
ag6
(g10
S'\xecQ\xb8\x1e\x85\xeb\xe1?'
p889
tp890
Rp891
ag6
(g10
S')\\\x8f\xc2\xf5(\xe4?'
p892
tp893
Rp894
ag6
(g10
S'\xd7\xa3p=\n\xd7\xe3?'
p895
tp896
Rp897
aa(lp898
g35
((lp899
(lp900
g38
aI400
aa(lp901
g40
aI1
aa(lp902
g42
aI12
aatp903
Rp904
ag35
((lp905
(lp906
g38
aI400
aa(lp907
g40
aI1
aa(lp908
g42
aI12
aatp909
Rp910
ag35
((lp911
(lp912
g38
aI400
aa(lp913
g40
aI2
aa(lp914
g42
aI19
aatp915
Rp916
ag35
((lp917
(lp918
g38
aI200
aa(lp919
g40
aI3
aa(lp920
g42
aI11
aatp921
Rp922
ag35
((lp923
(lp924
g38
aI200
aa(lp925
g40
aI3
aa(lp926
g42
aI6
aatp927
Rp928
ag35
((lp929
(lp930
g38
aI400
aa(lp931
g40
aI5
aa(lp932
g42
aI13
aatp933
Rp934
ag35
((lp935
(lp936
g38
aI400
aa(lp937
g40
aI1
aa(lp938
g42
aI5
aatp939
Rp940
ag35
((lp941
(lp942
g38
aI400
aa(lp943
g40
aI1
aa(lp944
g42
aI5
aatp945
Rp946
ag35
((lp947
(lp948
g38
aI200
aa(lp949
g40
aI3
aa(lp950
g42
aI11
aatp951
Rp952
ag35
((lp953
(lp954
g38
aI50
aa(lp955
g40
aI6
aa(lp956
g42
aI7
aatp957
Rp958
ag35
((lp959
(lp960
g38
aI200
aa(lp961
g40
aI6
aa(lp962
g42
aI9
aatp963
Rp964
ag35
((lp965
(lp966
g38
aI50
aa(lp967
g40
aI3
aa(lp968
g42
aI5
aatp969
Rp970
ag35
((lp971
(lp972
g38
aI400
aa(lp973
g40
aI2
aa(lp974
g42
aI19
aatp975
Rp976
ag35
((lp977
(lp978
g38
aI200
aa(lp979
g40
aI6
aa(lp980
g42
aI18
aatp981
Rp982
ag35
((lp983
(lp984
g38
aI400
aa(lp985
g40
aI4
aa(lp986
g42
aI9
aatp987
Rp988
ag35
((lp989
(lp990
g38
aI50
aa(lp991
g40
aI3
aa(lp992
g42
aI13
aatp993
Rp994
ag35
((lp995
(lp996
g38
aI50
aa(lp997
g40
aI6
aa(lp998
g42
aI17
aatp999
Rp1000
ag35
((lp1001
(lp1002
g38
aI100
aa(lp1003
g40
aI3
aa(lp1004
g42
aI16
aatp1005
Rp1006
ag35
((lp1007
(lp1008
g38
aI100
aa(lp1009
g40
aI4
aa(lp1010
g42
aI9
aatp1011
Rp1012
ag35
((lp1013
(lp1014
g38
aI200
aa(lp1015
g40
aI3
aa(lp1016
g42
aI5
aatp1017
Rp1018
ag35
((lp1019
(lp1020
g38
aI200
aa(lp1021
g40
aI3
aa(lp1022
g42
aI11
aatp1023
Rp1024
ag35
((lp1025
(lp1026
g38
aI400
aa(lp1027
g40
aI2
aa(lp1028
g42
aI19
aatp1029
Rp1030
ag35
((lp1031
(lp1032
g38
aI50
aa(lp1033
g40
aI3
aa(lp1034
g42
aI5
aatp1035
Rp1036
ag35
((lp1037
(lp1038
g38
aI400
aa(lp1039
g40
aI1
aa(lp1040
g42
aI5
aatp1041
Rp1042
ag35
((lp1043
(lp1044
g38
aI400
aa(lp1045
g40
aI1
aa(lp1046
g42
aI5
aatp1047
Rp1048
ag35
((lp1049
(lp1050
g38
aI100
aa(lp1051
g40
aI3
aa(lp1052
g42
aI12
aatp1053
Rp1054
ag35
((lp1055
(lp1056
g38
aI50
aa(lp1057
g40
aI2
aa(lp1058
g42
aI6
aatp1059
Rp1060
ag35
((lp1061
(lp1062
g38
aI200
aa(lp1063
g40
aI3
aa(lp1064
g42
aI6
aatp1065
Rp1066
ag35
((lp1067
(lp1068
g38
aI400
aa(lp1069
g40
aI1
aa(lp1070
g42
aI5
aatp1071
Rp1072
ag35
((lp1073
(lp1074
g38
aI100
aa(lp1075
g40
aI5
aa(lp1076
g42
aI6
aatp1077
Rp1078
aaF685.2690360546112
asg219
(lp1079
(lp1080
F0.23
aF0.32
aF0.24
aF0.21
aF0.23
aF0.33
aF0.23
aF0.35
aF0.26
aF0.25
aF0.25
aF0.22
aF0.21
aF0.27
aF0.26
aF0.25
aF0.23
aF0.27
aF0.3
aF0.28
aF0.28
aF0.23
aF0.29
aF0.31
aF0.27
aF0.24
aF0.24
aF0.25
aF0.3
aF0.23
aa(lp1081
g35
((lp1082
(lp1083
g38
aI50
aa(lp1084
g40
aI3
aa(lp1085
g42
aI5
aatp1086
Rp1087
ag35
((lp1088
(lp1089
g38
aI50
aa(lp1090
g40
aI3
aa(lp1091
g42
aI5
aatp1092
Rp1093
ag35
((lp1094
(lp1095
g38
aI50
aa(lp1096
g40
aI3
aa(lp1097
g42
aI5
aatp1098
Rp1099
ag35
((lp1100
(lp1101
g38
aI50
aa(lp1102
g40
aI3
aa(lp1103
g42
aI13
aatp1104
Rp1105
ag35
((lp1106
(lp1107
g38
aI50
aa(lp1108
g40
aI3
aa(lp1109
g42
aI20
aatp1110
Rp1111
ag35
((lp1112
(lp1113
g38
aI50
aa(lp1114
g40
aI6
aa(lp1115
g42
aI17
aatp1116
Rp1117
ag35
((lp1118
(lp1119
g38
aI50
aa(lp1120
g40
aI3
aa(lp1121
g42
aI13
aatp1122
Rp1123
ag35
((lp1124
(lp1125
g38
aI50
aa(lp1126
g40
aI3
aa(lp1127
g42
aI5
aatp1128
Rp1129
ag35
((lp1130
(lp1131
g38
aI50
aa(lp1132
g40
aI5
aa(lp1133
g42
aI18
aatp1134
Rp1135
ag35
((lp1136
(lp1137
g38
aI50
aa(lp1138
g40
aI5
aa(lp1139
g42
aI11
aatp1140
Rp1141
ag35
((lp1142
(lp1143
g38
aI50
aa(lp1144
g40
aI3
aa(lp1145
g42
aI13
aatp1146
Rp1147
ag35
((lp1148
(lp1149
g38
aI50
aa(lp1150
g40
aI6
aa(lp1151
g42
aI17
aatp1152
Rp1153
ag35
((lp1154
(lp1155
g38
aI50
aa(lp1156
g40
aI1
aa(lp1157
g42
aI15
aatp1158
Rp1159
ag35
((lp1160
(lp1161
g38
aI50
aa(lp1162
g40
aI3
aa(lp1163
g42
aI15
aatp1164
Rp1165
ag35
((lp1166
(lp1167
g38
aI50
aa(lp1168
g40
aI6
aa(lp1169
g42
aI12
aatp1170
Rp1171
ag35
((lp1172
(lp1173
g38
aI50
aa(lp1174
g40
aI6
aa(lp1175
g42
aI12
aatp1176
Rp1177
ag35
((lp1178
(lp1179
g38
aI50
aa(lp1180
g40
aI5
aa(lp1181
g42
aI11
aatp1182
Rp1183
ag35
((lp1184
(lp1185
g38
aI50
aa(lp1186
g40
aI3
aa(lp1187
g42
aI5
aatp1188
Rp1189
ag35
((lp1190
(lp1191
g38
aI50
aa(lp1192
g40
aI3
aa(lp1193
g42
aI16
aatp1194
Rp1195
ag35
((lp1196
(lp1197
g38
aI50
aa(lp1198
g40
aI3
aa(lp1199
g42
aI20
aatp1200
Rp1201
ag35
((lp1202
(lp1203
g38
aI50
aa(lp1204
g40
aI2
aa(lp1205
g42
aI20
aatp1206
Rp1207
ag35
((lp1208
(lp1209
g38
aI50
aa(lp1210
g40
aI6
aa(lp1211
g42
aI17
aatp1212
Rp1213
ag35
((lp1214
(lp1215
g38
aI50
aa(lp1216
g40
aI5
aa(lp1217
g42
aI11
aatp1218
Rp1219
ag35
((lp1220
(lp1221
g38
aI50
aa(lp1222
g40
aI3
aa(lp1223
g42
aI20
aatp1224
Rp1225
ag35
((lp1226
(lp1227
g38
aI50
aa(lp1228
g40
aI3
aa(lp1229
g42
aI5
aatp1230
Rp1231
ag35
((lp1232
(lp1233
g38
aI50
aa(lp1234
g40
aI5
aa(lp1235
g42
aI11
aatp1236
Rp1237
ag35
((lp1238
(lp1239
g38
aI50
aa(lp1240
g40
aI4
aa(lp1241
g42
aI21
aatp1242
Rp1243
ag35
((lp1244
(lp1245
g38
aI50
aa(lp1246
g40
aI6
aa(lp1247
g42
aI12
aatp1248
Rp1249
ag35
((lp1250
(lp1251
g38
aI50
aa(lp1252
g40
aI6
aa(lp1253
g42
aI17
aatp1254
Rp1255
ag35
((lp1256
(lp1257
g38
aI50
aa(lp1258
g40
aI3
aa(lp1259
g42
aI13
aatp1260
Rp1261
aaF741.7692720890045
assS'RF'
p1262
(dp1263
g3
(lp1264
(lp1265
F1.0
aF1.0
ag6
(g10
S'\xecQ\xb8\x1e\x85\xeb\xc1?'
p1266
tp1267
Rp1268
ag6
(g10
S'q=\n\xd7\xa3p\xe5?'
p1269
tp1270
Rp1271
aF1.0
aF1.0
ag6
(g10
S'\xe1z\x14\xaeG\xe1\xca?'
p1272
tp1273
Rp1274
aF1.0
ag6
(g10
S'\x8f\xc2\xf5(\\\x8f\xea?'
p1275
tp1276
Rp1277
ag6
(g10
S'\xe1z\x14\xaeG\xe1\xca?'
p1278
tp1279
Rp1280
aF1.0
ag6
(g10
S'\x8f\xc2\xf5(\\\x8f\xea?'
p1281
tp1282
Rp1283
ag6
(g10
S'\xe1z\x14\xaeG\xe1\xca?'
p1284
tp1285
Rp1286
aF1.0
ag6
(g10
S'\x8f\xc2\xf5(\\\x8f\xea?'
p1287
tp1288
Rp1289
ag6
(g10
S'\xa4p=\n\xd7\xa3\xc0?'
p1290
tp1291
Rp1292
aF1.0
ag6
(g10
S'\x8f\xc2\xf5(\\\x8f\xea?'
p1293
tp1294
Rp1295
ag6
(g10
S'\x8f\xc2\xf5(\\\x8f\xea?'
p1296
tp1297
Rp1298
aF1.0
aF1.01
aF1.0
aF1.0
aF1.0
ag6
(g10
S'\xe1z\x14\xaeG\xe1\xca?'
p1299
tp1300
Rp1301
ag6
(g10
S'\x8f\xc2\xf5(\\\x8f\xea?'
p1302
tp1303
Rp1304
ag6
(g10
S'\x8f\xc2\xf5(\\\x8f\xea?'
p1305
tp1306
Rp1307
aF1.0
ag6
(g10
S'\x8f\xc2\xf5(\\\x8f\xea?'
p1308
tp1309
Rp1310
ag6
(g10
S'\xe1z\x14\xaeG\xe1\xca?'
p1311
tp1312
Rp1313
aa(lp1314
g35
((lp1315
(lp1316
g38
aI50
aa(lp1317
g40
aI3
aa(lp1318
g42
aI5
aatp1319
Rp1320
ag35
((lp1321
(lp1322
g38
aI50
aa(lp1323
g40
aI5
aa(lp1324
g42
aI11
aatp1325
Rp1326
ag35
((lp1327
(lp1328
g38
aI50
aa(lp1329
g40
aI4
aa(lp1330
g42
aI21
aatp1331
Rp1332
ag35
((lp1333
(lp1334
g38
aI50
aa(lp1335
g40
aI3
aa(lp1336
g42
aI13
aatp1337
Rp1338
ag35
((lp1339
(lp1340
g38
aI50
aa(lp1341
g40
aI6
aa(lp1342
g42
aI12
aatp1343
Rp1344
ag35
((lp1345
(lp1346
g38
aI50
aa(lp1347
g40
aI2
aa(lp1348
g42
aI13
aatp1349
Rp1350
ag35
((lp1351
(lp1352
g38
aI50
aa(lp1353
g40
aI6
aa(lp1354
g42
aI17
aatp1355
Rp1356
ag35
((lp1357
(lp1358
g38
aI50
aa(lp1359
g40
aI5
aa(lp1360
g42
aI11
aatp1361
Rp1362
ag35
((lp1363
(lp1364
g38
aI50
aa(lp1365
g40
aI5
aa(lp1366
g42
aI11
aatp1367
Rp1368
ag35
((lp1369
(lp1370
g38
aI50
aa(lp1371
g40
aI3
aa(lp1372
g42
aI5
aatp1373
Rp1374
ag35
((lp1375
(lp1376
g38
aI50
aa(lp1377
g40
aI3
aa(lp1378
g42
aI13
aatp1379
Rp1380
ag35
((lp1381
(lp1382
g38
aI50
aa(lp1383
g40
aI5
aa(lp1384
g42
aI19
aatp1385
Rp1386
ag35
((lp1387
(lp1388
g38
aI50
aa(lp1389
g40
aI2
aa(lp1390
g42
aI21
aatp1391
Rp1392
ag35
((lp1393
(lp1394
g38
aI50
aa(lp1395
g40
aI5
aa(lp1396
g42
aI11
aatp1397
Rp1398
ag35
((lp1399
(lp1400
g38
aI50
aa(lp1401
g40
aI4
aa(lp1402
g42
aI21
aatp1403
Rp1404
ag35
((lp1405
(lp1406
g38
aI50
aa(lp1407
g40
aI5
aa(lp1408
g42
aI11
aatp1409
Rp1410
ag35
((lp1411
(lp1412
g38
aI50
aa(lp1413
g40
aI5
aa(lp1414
g42
aI11
aatp1415
Rp1416
ag35
((lp1417
(lp1418
g38
aI50
aa(lp1419
g40
aI6
aa(lp1420
g42
aI14
aatp1421
Rp1422
ag35
((lp1423
(lp1424
g38
aI50
aa(lp1425
g40
aI3
aa(lp1426
g42
aI13
aatp1427
Rp1428
ag35
((lp1429
(lp1430
g38
aI50
aa(lp1431
g40
aI3
aa(lp1432
g42
aI20
aatp1433
Rp1434
ag35
((lp1435
(lp1436
g38
aI50
aa(lp1437
g40
aI1
aa(lp1438
g42
aI19
aatp1439
Rp1440
ag35
((lp1441
(lp1442
g38
aI50
aa(lp1443
g40
aI4
aa(lp1444
g42
aI11
aatp1445
Rp1446
ag35
((lp1447
(lp1448
g38
aI50
aa(lp1449
g40
aI5
aa(lp1450
g42
aI11
aatp1451
Rp1452
ag35
((lp1453
(lp1454
g38
aI50
aa(lp1455
g40
aI2
aa(lp1456
g42
aI21
aatp1457
Rp1458
ag35
((lp1459
(lp1460
g38
aI50
aa(lp1461
g40
aI3
aa(lp1462
g42
aI15
aatp1463
Rp1464
ag35
((lp1465
(lp1466
g38
aI50
aa(lp1467
g40
aI6
aa(lp1468
g42
aI12
aatp1469
Rp1470
ag35
((lp1471
(lp1472
g38
aI50
aa(lp1473
g40
aI3
aa(lp1474
g42
aI5
aatp1475
Rp1476
ag35
((lp1477
(lp1478
g38
aI50
aa(lp1479
g40
aI6
aa(lp1480
g42
aI12
aatp1481
Rp1482
ag35
((lp1483
(lp1484
g38
aI50
aa(lp1485
g40
aI3
aa(lp1486
g42
aI13
aatp1487
Rp1488
ag35
((lp1489
(lp1490
g38
aI50
aa(lp1491
g40
aI3
aa(lp1492
g42
aI13
aatp1493
Rp1494
aaF1026.822504043579
asg219
(lp1495
(lp1496
F0.91
aF0.86
aF0.94
aF0.91
aF0.95
aF0.96
aF0.97
aF0.89
aF0.93
aF0.97
aF0.96
aF0.87
aF0.92
aF0.93
aF0.83
aF0.9
aF0.97
aF0.96
aF0.87
aF0.91
aF0.97
aF0.93
aF0.91
aF0.93
aF0.94
aF0.93
aF0.94
aF0.86
aF0.9
aF0.94
aa(lp1497
g35
((lp1498
(lp1499
g38
aI50
aa(lp1500
g40
aI3
aa(lp1501
g42
aI5
aatp1502
Rp1503
ag35
((lp1504
(lp1505
g38
aI100
aa(lp1506
g40
aI2
aa(lp1507
g42
aI20
aatp1508
Rp1509
ag35
((lp1510
(lp1511
g38
aI50
aa(lp1512
g40
aI3
aa(lp1513
g42
aI5
aatp1514
Rp1515
ag35
((lp1516
(lp1517
g38
aI100
aa(lp1518
g40
aI1
aa(lp1519
g42
aI18
aatp1520
Rp1521
ag35
((lp1522
(lp1523
g38
aI50
aa(lp1524
g40
aI1
aa(lp1525
g42
aI15
aatp1526
Rp1527
ag35
((lp1528
(lp1529
g38
aI50
aa(lp1530
g40
aI3
aa(lp1531
g42
aI5
aatp1532
Rp1533
ag35
((lp1534
(lp1535
g38
aI50
aa(lp1536
g40
aI3
aa(lp1537
g42
aI13
aatp1538
Rp1539
ag35
((lp1540
(lp1541
g38
aI100
aa(lp1542
g40
aI6
aa(lp1543
g42
aI21
aatp1544
Rp1545
ag35
((lp1546
(lp1547
g38
aI50
aa(lp1548
g40
aI5
aa(lp1549
g42
aI18
aatp1550
Rp1551
ag35
((lp1552
(lp1553
g38
aI50
aa(lp1554
g40
aI1
aa(lp1555
g42
aI7
aatp1556
Rp1557
ag35
((lp1558
(lp1559
g38
aI50
aa(lp1560
g40
aI1
aa(lp1561
g42
aI15
aatp1562
Rp1563
ag35
((lp1564
(lp1565
g38
aI100
aa(lp1566
g40
aI2
aa(lp1567
g42
aI20
aatp1568
Rp1569
ag35
((lp1570
(lp1571
g38
aI50
aa(lp1572
g40
aI3
aa(lp1573
g42
aI13
aatp1574
Rp1575
ag35
((lp1576
(lp1577
g38
aI50
aa(lp1578
g40
aI3
aa(lp1579
g42
aI5
aatp1580
Rp1581
ag35
((lp1582
(lp1583
g38
aI100
aa(lp1584
g40
aI6
aa(lp1585
g42
aI14
aatp1586
Rp1587
ag35
((lp1588
(lp1589
g38
aI50
aa(lp1590
g40
aI6
aa(lp1591
g42
aI17
aatp1592
Rp1593
ag35
((lp1594
(lp1595
g38
aI50
aa(lp1596
g40
aI1
aa(lp1597
g42
aI15
aatp1598
Rp1599
ag35
((lp1600
(lp1601
g38
aI50
aa(lp1602
g40
aI4
aa(lp1603
g42
aI10
aatp1604
Rp1605
ag35
((lp1606
(lp1607
g38
aI100
aa(lp1608
g40
aI2
aa(lp1609
g42
aI19
aatp1610
Rp1611
ag35
((lp1612
(lp1613
g38
aI100
aa(lp1614
g40
aI3
aa(lp1615
g42
aI13
aatp1616
Rp1617
ag35
((lp1618
(lp1619
g38
aI50
aa(lp1620
g40
aI3
aa(lp1621
g42
aI13
aatp1622
Rp1623
ag35
((lp1624
(lp1625
g38
aI50
aa(lp1626
g40
aI1
aa(lp1627
g42
aI19
aatp1628
Rp1629
ag35
((lp1630
(lp1631
g38
aI50
aa(lp1632
g40
aI3
aa(lp1633
g42
aI13
aatp1634
Rp1635
ag35
((lp1636
(lp1637
g38
aI50
aa(lp1638
g40
aI6
aa(lp1639
g42
aI14
aatp1640
Rp1641
ag35
((lp1642
(lp1643
g38
aI50
aa(lp1644
g40
aI6
aa(lp1645
g42
aI8
aatp1646
Rp1647
ag35
((lp1648
(lp1649
g38
aI50
aa(lp1650
g40
aI3
aa(lp1651
g42
aI20
aatp1652
Rp1653
ag35
((lp1654
(lp1655
g38
aI50
aa(lp1656
g40
aI5
aa(lp1657
g42
aI19
aatp1658
Rp1659
ag35
((lp1660
(lp1661
g38
aI100
aa(lp1662
g40
aI6
aa(lp1663
g42
aI6
aatp1664
Rp1665
ag35
((lp1666
(lp1667
g38
aI100
aa(lp1668
g40
aI3
aa(lp1669
g42
aI12
aatp1670
Rp1671
ag35
((lp1672
(lp1673
g38
aI50
aa(lp1674
g40
aI5
aa(lp1675
g42
aI18
aatp1676
Rp1677
aaF899.8864040374756
assS'LR'
p1678
(dp1679
g3
(lp1680
(lp1681
F1.0
aF1.0
aF1.0
aF1.0
aF1.0
aF1.0
aF1.0
aF1.0
aF1.0
aF1.0
aF1.0
aF1.0
aF1.0
aF1.0
aF1.0
aF1.0
aF1.0
aF1.0
aF1.0
aF1.0
aF1.0
aF1.0
aF1.0
aF1.0
aF1.0
aF1.0
aF1.0
aF1.0
aF1.0
aF1.0
aa(lp1682
g35
((lp1683
(lp1684
g38
aI50
aa(lp1685
g40
aI3
aa(lp1686
g42
aI13
aatp1687
Rp1688
ag35
((lp1689
(lp1690
g38
aI50
aa(lp1691
g40
aI3
aa(lp1692
g42
aI13
aatp1693
Rp1694
ag35
((lp1695
(lp1696
g38
aI50
aa(lp1697
g40
aI3
aa(lp1698
g42
aI13
aatp1699
Rp1700
ag35
((lp1701
(lp1702
g38
aI50
aa(lp1703
g40
aI3
aa(lp1704
g42
aI13
aatp1705
Rp1706
ag35
((lp1707
(lp1708
g38
aI50
aa(lp1709
g40
aI3
aa(lp1710
g42
aI13
aatp1711
Rp1712
ag35
((lp1713
(lp1714
g38
aI50
aa(lp1715
g40
aI3
aa(lp1716
g42
aI13
aatp1717
Rp1718
ag35
((lp1719
(lp1720
g38
aI50
aa(lp1721
g40
aI3
aa(lp1722
g42
aI13
aatp1723
Rp1724
ag35
((lp1725
(lp1726
g38
aI50
aa(lp1727
g40
aI3
aa(lp1728
g42
aI13
aatp1729
Rp1730
ag35
((lp1731
(lp1732
g38
aI50
aa(lp1733
g40
aI1
aa(lp1734
g42
aI15
aatp1735
Rp1736
ag35
((lp1737
(lp1738
g38
aI50
aa(lp1739
g40
aI3
aa(lp1740
g42
aI13
aatp1741
Rp1742
ag35
((lp1743
(lp1744
g38
aI50
aa(lp1745
g40
aI3
aa(lp1746
g42
aI13
aatp1747
Rp1748
ag35
((lp1749
(lp1750
g38
aI50
aa(lp1751
g40
aI3
aa(lp1752
g42
aI13
aatp1753
Rp1754
ag35
((lp1755
(lp1756
g38
aI50
aa(lp1757
g40
aI3
aa(lp1758
g42
aI13
aatp1759
Rp1760
ag35
((lp1761
(lp1762
g38
aI50
aa(lp1763
g40
aI3
aa(lp1764
g42
aI13
aatp1765
Rp1766
ag35
((lp1767
(lp1768
g38
aI50
aa(lp1769
g40
aI3
aa(lp1770
g42
aI13
aatp1771
Rp1772
ag35
((lp1773
(lp1774
g38
aI50
aa(lp1775
g40
aI3
aa(lp1776
g42
aI13
aatp1777
Rp1778
ag35
((lp1779
(lp1780
g38
aI50
aa(lp1781
g40
aI3
aa(lp1782
g42
aI13
aatp1783
Rp1784
ag35
((lp1785
(lp1786
g38
aI50
aa(lp1787
g40
aI3
aa(lp1788
g42
aI13
aatp1789
Rp1790
ag35
((lp1791
(lp1792
g38
aI50
aa(lp1793
g40
aI3
aa(lp1794
g42
aI13
aatp1795
Rp1796
ag35
((lp1797
(lp1798
g38
aI50
aa(lp1799
g40
aI3
aa(lp1800
g42
aI13
aatp1801
Rp1802
ag35
((lp1803
(lp1804
g38
aI50
aa(lp1805
g40
aI3
aa(lp1806
g42
aI13
aatp1807
Rp1808
ag35
((lp1809
(lp1810
g38
aI50
aa(lp1811
g40
aI3
aa(lp1812
g42
aI13
aatp1813
Rp1814
ag35
((lp1815
(lp1816
g38
aI50
aa(lp1817
g40
aI3
aa(lp1818
g42
aI13
aatp1819
Rp1820
ag35
((lp1821
(lp1822
g38
aI50
aa(lp1823
g40
aI3
aa(lp1824
g42
aI13
aatp1825
Rp1826
ag35
((lp1827
(lp1828
g38
aI50
aa(lp1829
g40
aI3
aa(lp1830
g42
aI13
aatp1831
Rp1832
ag35
((lp1833
(lp1834
g38
aI50
aa(lp1835
g40
aI3
aa(lp1836
g42
aI13
aatp1837
Rp1838
ag35
((lp1839
(lp1840
g38
aI50
aa(lp1841
g40
aI3
aa(lp1842
g42
aI13
aatp1843
Rp1844
ag35
((lp1845
(lp1846
g38
aI50
aa(lp1847
g40
aI3
aa(lp1848
g42
aI13
aatp1849
Rp1850
ag35
((lp1851
(lp1852
g38
aI50
aa(lp1853
g40
aI3
aa(lp1854
g42
aI13
aatp1855
Rp1856
ag35
((lp1857
(lp1858
g38
aI50
aa(lp1859
g40
aI3
aa(lp1860
g42
aI13
aatp1861
Rp1862
aaF555.0166440010071
asg219
(lp1863
(lp1864
F1.0
aF1.0
aF1.0
aF0.91
aF1.0
aF1.0
aF0.99
aF1.0
aF1.0
aF1.0
aF1.0
aF0.99
aF1.0
aF1.0
aF0.99
aF1.0
aF1.0
aF1.0
aF1.0
aF1.0
aF0.98
aF1.0
aF1.0
aF1.0
aF0.99
aF0.99
aF1.0
aF0.93
aF0.98
aF1.0
aa(lp1865
g35
((lp1866
(lp1867
g38
aI200
aa(lp1868
g40
aI2
aa(lp1869
g42
aI21
aatp1870
Rp1871
ag35
((lp1872
(lp1873
g38
aI200
aa(lp1874
g40
aI5
aa(lp1875
g42
aI7
aatp1876
Rp1877
ag35
((lp1878
(lp1879
g38
aI200
aa(lp1880
g40
aI6
aa(lp1881
g42
aI18
aatp1882
Rp1883
ag35
((lp1884
(lp1885
g38
aI400
aa(lp1886
g40
aI1
aa(lp1887
g42
aI15
aatp1888
Rp1889
ag35
((lp1890
(lp1891
g38
aI50
aa(lp1892
g40
aI3
aa(lp1893
g42
aI5
aatp1894
Rp1895
ag35
((lp1896
(lp1897
g38
aI200
aa(lp1898
g40
aI5
aa(lp1899
g42
aI5
aatp1900
Rp1901
ag35
((lp1902
(lp1903
g38
aI200
aa(lp1904
g40
aI6
aa(lp1905
g42
aI11
aatp1906
Rp1907
ag35
((lp1908
(lp1909
g38
aI50
aa(lp1910
g40
aI3
aa(lp1911
g42
aI13
aatp1912
Rp1913
ag35
((lp1914
(lp1915
g38
aI50
aa(lp1916
g40
aI3
aa(lp1917
g42
aI13
aatp1918
Rp1919
ag35
((lp1920
(lp1921
g38
aI50
aa(lp1922
g40
aI3
aa(lp1923
g42
aI13
aatp1924
Rp1925
ag35
((lp1926
(lp1927
g38
aI50
aa(lp1928
g40
aI3
aa(lp1929
g42
aI13
aatp1930
Rp1931
ag35
((lp1932
(lp1933
g38
aI400
aa(lp1934
g40
aI2
aa(lp1935
g42
aI19
aatp1936
Rp1937
ag35
((lp1938
(lp1939
g38
aI50
aa(lp1940
g40
aI3
aa(lp1941
g42
aI13
aatp1942
Rp1943
ag35
((lp1944
(lp1945
g38
aI200
aa(lp1946
g40
aI2
aa(lp1947
g42
aI12
aatp1948
Rp1949
ag35
((lp1950
(lp1951
g38
aI400
aa(lp1952
g40
aI1
aa(lp1953
g42
aI5
aatp1954
Rp1955
ag35
((lp1956
(lp1957
g38
aI50
aa(lp1958
g40
aI6
aa(lp1959
g42
aI12
aatp1960
Rp1961
ag35
((lp1962
(lp1963
g38
aI200
aa(lp1964
g40
aI2
aa(lp1965
g42
aI21
aatp1966
Rp1967
ag35
((lp1968
(lp1969
g38
aI50
aa(lp1970
g40
aI3
aa(lp1971
g42
aI13
aatp1972
Rp1973
ag35
((lp1974
(lp1975
g38
aI200
aa(lp1976
g40
aI6
aa(lp1977
g42
aI11
aatp1978
Rp1979
ag35
((lp1980
(lp1981
g38
aI50
aa(lp1982
g40
aI3
aa(lp1983
g42
aI13
aatp1984
Rp1985
ag35
((lp1986
(lp1987
g38
aI200
aa(lp1988
g40
aI6
aa(lp1989
g42
aI11
aatp1990
Rp1991
ag35
((lp1992
(lp1993
g38
aI50
aa(lp1994
g40
aI3
aa(lp1995
g42
aI13
aatp1996
Rp1997
ag35
((lp1998
(lp1999
g38
aI50
aa(lp2000
g40
aI3
aa(lp2001
g42
aI13
aatp2002
Rp2003
ag35
((lp2004
(lp2005
g38
aI200
aa(lp2006
g40
aI6
aa(lp2007
g42
aI18
aatp2008
Rp2009
ag35
((lp2010
(lp2011
g38
aI400
aa(lp2012
g40
aI6
aa(lp2013
g42
aI15
aatp2014
Rp2015
ag35
((lp2016
(lp2017
g38
aI200
aa(lp2018
g40
aI6
aa(lp2019
g42
aI11
aatp2020
Rp2021
ag35
((lp2022
(lp2023
g38
aI200
aa(lp2024
g40
aI3
aa(lp2025
g42
aI5
aatp2026
Rp2027
ag35
((lp2028
(lp2029
g38
aI400
aa(lp2030
g40
aI1
aa(lp2031
g42
aI12
aatp2032
Rp2033
ag35
((lp2034
(lp2035
g38
aI400
aa(lp2036
g40
aI1
aa(lp2037
g42
aI12
aatp2038
Rp2039
ag35
((lp2040
(lp2041
g38
aI200
aa(lp2042
g40
aI6
aa(lp2043
g42
aI11
aatp2044
Rp2045
aaF440.1343321800232
assS'DT'
p2046
(dp2047
g3
(lp2048
(lp2049
g6
(g10
S')\\\x8f\xc2\xf5(\xcc?'
p2050
tp2051
Rp2052
ag6
(g10
S'\xecQ\xb8\x1e\x85\xeb\xc1?'
p2053
tp2054
Rp2055
ag6
(g10
S'333333\xc3?'
p2056
tp2057
Rp2058
ag6
(g10
S'\xc3\xf5(\\\x8f\xc2\xe5?'
p2059
tp2060
Rp2061
ag6
(g10
S'333333\xc3?'
p2062
tp2063
Rp2064
ag6
(g10
S'\xecQ\xb8\x1e\x85\xeb\xc1?'
p2065
tp2066
Rp2067
ag6
(g10
S'333333\xc3?'
p2068
tp2069
Rp2070
ag6
(g10
S'\xe1z\x14\xaeG\xe1\xea?'
p2071
tp2072
Rp2073
ag6
(g10
S'\x14\xaeG\xe1z\x14\xe6?'
p2074
tp2075
Rp2076
ag6
(g10
S'\xecQ\xb8\x1e\x85\xeb\xc1?'
p2077
tp2078
Rp2079
ag6
(g10
S'\xd7\xa3p=\n\xd7\xd3?'
p2080
tp2081
Rp2082
ag6
(g10
S'{\x14\xaeG\xe1z\xc4?'
p2083
tp2084
Rp2085
ag6
(g10
S'\xecQ\xb8\x1e\x85\xeb\xc1?'
p2086
tp2087
Rp2088
ag6
(g10
S'\xe1z\x14\xaeG\xe1\xea?'
p2089
tp2090
Rp2091
ag6
(g10
S'q=\n\xd7\xa3p\xcd?'
p2092
tp2093
Rp2094
ag6
(g10
S'\xecQ\xb8\x1e\x85\xeb\xc1?'
p2095
tp2096
Rp2097
ag6
(g10
S'{\x14\xaeG\xe1z\xc4?'
p2098
tp2099
Rp2100
ag6
(g10
S'\n\xd7\xa3p=\n\xb7?'
p2101
tp2102
Rp2103
ag6
(g10
S'\xe1z\x14\xaeG\xe1\xca?'
p2104
tp2105
Rp2106
ag6
(g10
S'\xc3\xf5(\\\x8f\xc2\xe5?'
p2107
tp2108
Rp2109
ag6
(g10
S'q=\n\xd7\xa3p\xcd?'
p2110
tp2111
Rp2112
ag6
(g10
S')\\\x8f\xc2\xf5(\xcc?'
p2113
tp2114
Rp2115
ag6
(g10
S')\\\x8f\xc2\xf5(\xcc?'
p2116
tp2117
Rp2118
ag6
(g10
S'\xc3\xf5(\\\x8f\xc2\xe5?'
p2119
tp2120
Rp2121
ag6
(g10
S'333333\xc3?'
p2122
tp2123
Rp2124
ag6
(g10
S'\x8f\xc2\xf5(\\\x8f\xea?'
p2125
tp2126
Rp2127
ag6
(g10
S'H\xe1z\x14\xaeG\xe1?'
p2128
tp2129
Rp2130
ag6
(g10
S'333333\xc3?'
p2131
tp2132
Rp2133
ag6
(g10
S'\xc3\xf5(\\\x8f\xc2\xe5?'
p2134
tp2135
Rp2136
ag6
(g10
S'\xc3\xf5(\\\x8f\xc2\xe5?'
p2137
tp2138
Rp2139
aa(lp2140
g35
((lp2141
(lp2142
g38
aI50
aa(lp2143
g40
aI3
aa(lp2144
g42
aI5
aatp2145
Rp2146
ag35
((lp2147
(lp2148
g38
aI50
aa(lp2149
g40
aI1
aa(lp2150
g42
aI19
aatp2151
Rp2152
ag35
((lp2153
(lp2154
g38
aI50
aa(lp2155
g40
aI2
aa(lp2156
g42
aI19
aatp2157
Rp2158
ag35
((lp2159
(lp2160
g38
aI50
aa(lp2161
g40
aI6
aa(lp2162
g42
aI12
aatp2163
Rp2164
ag35
((lp2165
(lp2166
g38
aI50
aa(lp2167
g40
aI4
aa(lp2168
g42
aI18
aatp2169
Rp2170
ag35
((lp2171
(lp2172
g38
aI50
aa(lp2173
g40
aI3
aa(lp2174
g42
aI13
aatp2175
Rp2176
ag35
((lp2177
(lp2178
g38
aI50
aa(lp2179
g40
aI6
aa(lp2180
g42
aI17
aatp2181
Rp2182
ag35
((lp2183
(lp2184
g38
aI50
aa(lp2185
g40
aI4
aa(lp2186
g42
aI18
aatp2187
Rp2188
ag35
((lp2189
(lp2190
g38
aI50
aa(lp2191
g40
aI6
aa(lp2192
g42
aI17
aatp2193
Rp2194
ag35
((lp2195
(lp2196
g38
aI50
aa(lp2197
g40
aI4
aa(lp2198
g42
aI21
aatp2199
Rp2200
ag35
((lp2201
(lp2202
g38
aI50
aa(lp2203
g40
aI3
aa(lp2204
g42
aI13
aatp2205
Rp2206
ag35
((lp2207
(lp2208
g38
aI50
aa(lp2209
g40
aI6
aa(lp2210
g42
aI12
aatp2211
Rp2212
ag35
((lp2213
(lp2214
g38
aI50
aa(lp2215
g40
aI6
aa(lp2216
g42
aI12
aatp2217
Rp2218
ag35
((lp2219
(lp2220
g38
aI50
aa(lp2221
g40
aI6
aa(lp2222
g42
aI12
aatp2223
Rp2224
ag35
((lp2225
(lp2226
g38
aI50
aa(lp2227
g40
aI3
aa(lp2228
g42
aI5
aatp2229
Rp2230
ag35
((lp2231
(lp2232
g38
aI50
aa(lp2233
g40
aI3
aa(lp2234
g42
aI15
aatp2235
Rp2236
ag35
((lp2237
(lp2238
g38
aI50
aa(lp2239
g40
aI6
aa(lp2240
g42
aI12
aatp2241
Rp2242
ag35
((lp2243
(lp2244
g38
aI50
aa(lp2245
g40
aI3
aa(lp2246
g42
aI5
aatp2247
Rp2248
ag35
((lp2249
(lp2250
g38
aI50
aa(lp2251
g40
aI6
aa(lp2252
g42
aI17
aatp2253
Rp2254
ag35
((lp2255
(lp2256
g38
aI50
aa(lp2257
g40
aI3
aa(lp2258
g42
aI13
aatp2259
Rp2260
ag35
((lp2261
(lp2262
g38
aI50
aa(lp2263
g40
aI5
aa(lp2264
g42
aI11
aatp2265
Rp2266
ag35
((lp2267
(lp2268
g38
aI50
aa(lp2269
g40
aI5
aa(lp2270
g42
aI11
aatp2271
Rp2272
ag35
((lp2273
(lp2274
g38
aI50
aa(lp2275
g40
aI5
aa(lp2276
g42
aI18
aatp2277
Rp2278
ag35
((lp2279
(lp2280
g38
aI50
aa(lp2281
g40
aI3
aa(lp2282
g42
aI13
aatp2283
Rp2284
ag35
((lp2285
(lp2286
g38
aI50
aa(lp2287
g40
aI3
aa(lp2288
g42
aI15
aatp2289
Rp2290
ag35
((lp2291
(lp2292
g38
aI50
aa(lp2293
g40
aI3
aa(lp2294
g42
aI5
aatp2295
Rp2296
ag35
((lp2297
(lp2298
g38
aI50
aa(lp2299
g40
aI6
aa(lp2300
g42
aI17
aatp2301
Rp2302
ag35
((lp2303
(lp2304
g38
aI50
aa(lp2305
g40
aI3
aa(lp2306
g42
aI5
aatp2307
Rp2308
ag35
((lp2309
(lp2310
g38
aI50
aa(lp2311
g40
aI5
aa(lp2312
g42
aI18
aatp2313
Rp2314
ag35
((lp2315
(lp2316
g38
aI50
aa(lp2317
g40
aI6
aa(lp2318
g42
aI14
aatp2319
Rp2320
aaF864.7328050136566
asg219
(lp2321
(lp2322
F0.89
aF0.91
aF0.9
aF0.92
aF0.93
aF0.88
aF0.89
aF0.81
aF0.89
aF0.87
aF0.86
aF0.9
aF0.86
aF0.92
aF0.89
aF0.88
aF0.9
aF0.88
aF0.89
aF0.94
aF0.89
aF0.85
aF0.92
aF0.89
aF0.9
aF0.9
aF0.81
aF0.81
aF0.9
aF0.83
aa(lp2323
g35
((lp2324
(lp2325
g38
aI50
aa(lp2326
g40
aI3
aa(lp2327
g42
aI5
aatp2328
Rp2329
ag35
((lp2330
(lp2331
g38
aI50
aa(lp2332
g40
aI1
aa(lp2333
g42
aI15
aatp2334
Rp2335
ag35
((lp2336
(lp2337
g38
aI50
aa(lp2338
g40
aI2
aa(lp2339
g42
aI14
aatp2340
Rp2341
ag35
((lp2342
(lp2343
g38
aI50
aa(lp2344
g40
aI4
aa(lp2345
g42
aI11
aatp2346
Rp2347
ag35
((lp2348
(lp2349
g38
aI50
aa(lp2350
g40
aI3
aa(lp2351
g42
aI5
aatp2352
Rp2353
ag35
((lp2354
(lp2355
g38
aI50
aa(lp2356
g40
aI5
aa(lp2357
g42
aI11
aatp2358
Rp2359
ag35
((lp2360
(lp2361
g38
aI50
aa(lp2362
g40
aI5
aa(lp2363
g42
aI11
aatp2364
Rp2365
ag35
((lp2366
(lp2367
g38
aI100
aa(lp2368
g40
aI5
aa(lp2369
g42
aI8
aatp2370
Rp2371
ag35
((lp2372
(lp2373
g38
aI50
aa(lp2374
g40
aI6
aa(lp2375
g42
aI14
aatp2376
Rp2377
ag35
((lp2378
(lp2379
g38
aI50
aa(lp2380
g40
aI2
aa(lp2381
g42
aI13
aatp2382
Rp2383
ag35
((lp2384
(lp2385
g38
aI50
aa(lp2386
g40
aI3
aa(lp2387
g42
aI13
aatp2388
Rp2389
ag35
((lp2390
(lp2391
g38
aI50
aa(lp2392
g40
aI3
aa(lp2393
g42
aI15
aatp2394
Rp2395
ag35
((lp2396
(lp2397
g38
aI50
aa(lp2398
g40
aI1
aa(lp2399
g42
aI15
aatp2400
Rp2401
ag35
((lp2402
(lp2403
g38
aI50
aa(lp2404
g40
aI3
aa(lp2405
g42
aI5
aatp2406
Rp2407
ag35
((lp2408
(lp2409
g38
aI50
aa(lp2410
g40
aI3
aa(lp2411
g42
aI5
aatp2412
Rp2413
ag35
((lp2414
(lp2415
g38
aI50
aa(lp2416
g40
aI3
aa(lp2417
g42
aI20
aatp2418
Rp2419
ag35
((lp2420
(lp2421
g38
aI50
aa(lp2422
g40
aI3
aa(lp2423
g42
aI5
aatp2424
Rp2425
ag35
((lp2426
(lp2427
g38
aI50
aa(lp2428
g40
aI5
aa(lp2429
g42
aI19
aatp2430
Rp2431
ag35
((lp2432
(lp2433
g38
aI50
aa(lp2434
g40
aI6
aa(lp2435
g42
aI14
aatp2436
Rp2437
ag35
((lp2438
(lp2439
g38
aI50
aa(lp2440
g40
aI3
aa(lp2441
g42
aI13
aatp2442
Rp2443
ag35
((lp2444
(lp2445
g38
aI50
aa(lp2446
g40
aI5
aa(lp2447
g42
aI18
aatp2448
Rp2449
ag35
((lp2450
(lp2451
g38
aI100
aa(lp2452
g40
aI4
aa(lp2453
g42
aI17
aatp2454
Rp2455
ag35
((lp2456
(lp2457
g38
aI50
aa(lp2458
g40
aI3
aa(lp2459
g42
aI13
aatp2460
Rp2461
ag35
((lp2462
(lp2463
g38
aI50
aa(lp2464
g40
aI4
aa(lp2465
g42
aI11
aatp2466
Rp2467
ag35
((lp2468
(lp2469
g38
aI50
aa(lp2470
g40
aI3
aa(lp2471
g42
aI15
aatp2472
Rp2473
ag35
((lp2474
(lp2475
g38
aI50
aa(lp2476
g40
aI3
aa(lp2477
g42
aI5
aatp2478
Rp2479
ag35
((lp2480
(lp2481
g38
aI100
aa(lp2482
g40
aI3
aa(lp2483
g42
aI12
aatp2484
Rp2485
ag35
((lp2486
(lp2487
g38
aI50
aa(lp2488
g40
aI4
aa(lp2489
g42
aI10
aatp2490
Rp2491
ag35
((lp2492
(lp2493
g38
aI50
aa(lp2494
g40
aI3
aa(lp2495
g42
aI10
aatp2496
Rp2497
ag35
((lp2498
(lp2499
g38
aI100
aa(lp2500
g40
aI1
aa(lp2501
g42
aI18
aatp2502
Rp2503
aaF757.4758260250092
ass.