(dp0
S'KNN'
p1
(dp2
S'd2h'
p3
(lp4
(lp5
cnumpy.core.multiarray
scalar
p6
(cnumpy
dtype
p7
(S'f8'
p8
I0
I1
tp9
Rp10
(I3
S'<'
p11
NNNI-1
I-1
I0
tp12
bS'\xe1z\x14\xaeG\xe1\xda?'
p13
tp14
Rp15
ag6
(g10
S'ffffff\xd6?'
p16
tp17
Rp18
ag6
(g10
S'\xcd\xcc\xcc\xcc\xcc\xcc\xdc?'
p19
tp20
Rp21
ag6
(g10
S')\\\x8f\xc2\xf5(\xdc?'
p22
tp23
Rp24
ag6
(g10
S')\\\x8f\xc2\xf5(\xdc?'
p25
tp26
Rp27
ag6
(g10
S'\x9a\x99\x99\x99\x99\x99\xd9?'
p28
tp29
Rp30
ag6
(g10
S'\xaeG\xe1z\x14\xae\xd7?'
p31
tp32
Rp33
ag6
(g10
S'R\xb8\x1e\x85\xebQ\xd8?'
p34
tp35
Rp36
ag6
(g10
S'\n\xd7\xa3p=\n\xd7?'
p37
tp38
Rp39
ag6
(g10
S'ffffff\xd6?'
p40
tp41
Rp42
ag6
(g10
S'\xcd\xcc\xcc\xcc\xcc\xcc\xdc?'
p43
tp44
Rp45
ag6
(g10
S')\\\x8f\xc2\xf5(\xdc?'
p46
tp47
Rp48
ag6
(g10
S'\x85\xebQ\xb8\x1e\x85\xdb?'
p49
tp50
Rp51
ag6
(g10
S'\x85\xebQ\xb8\x1e\x85\xdb?'
p52
tp53
Rp54
ag6
(g10
S'\xaeG\xe1z\x14\xae\xd7?'
p55
tp56
Rp57
ag6
(g10
S'\x85\xebQ\xb8\x1e\x85\xdb?'
p58
tp59
Rp60
ag6
(g10
S'ffffff\xd6?'
p61
tp62
Rp63
ag6
(g10
S'\xaeG\xe1z\x14\xae\xd7?'
p64
tp65
Rp66
ag6
(g10
S'R\xb8\x1e\x85\xebQ\xd8?'
p67
tp68
Rp69
ag6
(g10
S')\\\x8f\xc2\xf5(\xdc?'
p70
tp71
Rp72
ag6
(g10
S'\xc3\xf5(\\\x8f\xc2\xd5?'
p73
tp74
Rp75
ag6
(g10
S'R\xb8\x1e\x85\xebQ\xd8?'
p76
tp77
Rp78
ag6
(g10
S'R\xb8\x1e\x85\xebQ\xd8?'
p79
tp80
Rp81
ag6
(g10
S'\x85\xebQ\xb8\x1e\x85\xdb?'
p82
tp83
Rp84
ag6
(g10
S'\n\xd7\xa3p=\n\xd7?'
p85
tp86
Rp87
ag6
(g10
S'\xcd\xcc\xcc\xcc\xcc\xcc\xdc?'
p88
tp89
Rp90
ag6
(g10
S'\xe1z\x14\xaeG\xe1\xda?'
p91
tp92
Rp93
ag6
(g10
S'ffffff\xd6?'
p94
tp95
Rp96
ag6
(g10
S'\x85\xebQ\xb8\x1e\x85\xdb?'
p97
tp98
Rp99
ag6
(g10
S'\x9a\x99\x99\x99\x99\x99\xd9?'
p100
tp101
Rp102
aa(lp103
ccollections
OrderedDict
p104
((lp105
(lp106
S'm'
p107
aI400
aa(lp108
S'r'
p109
aI6
aa(lp110
S'k'
p111
aI12
aatp112
Rp113
ag104
((lp114
(lp115
g107
aI400
aa(lp116
g109
aI2
aa(lp117
g111
aI19
aatp118
Rp119
ag104
((lp120
(lp121
g107
aI400
aa(lp122
g109
aI6
aa(lp123
g111
aI13
aatp124
Rp125
ag104
((lp126
(lp127
g107
aI400
aa(lp128
g109
aI5
aa(lp129
g111
aI13
aatp130
Rp131
ag104
((lp132
(lp133
g107
aI400
aa(lp134
g109
aI4
aa(lp135
g111
aI16
aatp136
Rp137
ag104
((lp138
(lp139
g107
aI200
aa(lp140
g109
aI5
aa(lp141
g111
aI12
aatp142
Rp143
ag104
((lp144
(lp145
g107
aI400
aa(lp146
g109
aI2
aa(lp147
g111
aI15
aatp148
Rp149
ag104
((lp150
(lp151
g107
aI400
aa(lp152
g109
aI1
aa(lp153
g111
aI14
aatp154
Rp155
ag104
((lp156
(lp157
g107
aI400
aa(lp158
g109
aI5
aa(lp159
g111
aI13
aatp160
Rp161
ag104
((lp162
(lp163
g107
aI400
aa(lp164
g109
aI4
aa(lp165
g111
aI19
aatp166
Rp167
ag104
((lp168
(lp169
g107
aI400
aa(lp170
g109
aI1
aa(lp171
g111
aI12
aatp172
Rp173
ag104
((lp174
(lp175
g107
aI400
aa(lp176
g109
aI2
aa(lp177
g111
aI19
aatp178
Rp179
ag104
((lp180
(lp181
g107
aI400
aa(lp182
g109
aI2
aa(lp183
g111
aI19
aatp184
Rp185
ag104
((lp186
(lp187
g107
aI400
aa(lp188
g109
aI5
aa(lp189
g111
aI13
aatp190
Rp191
ag104
((lp192
(lp193
g107
aI400
aa(lp194
g109
aI5
aa(lp195
g111
aI13
aatp196
Rp197
ag104
((lp198
(lp199
g107
aI400
aa(lp200
g109
aI1
aa(lp201
g111
aI12
aatp202
Rp203
ag104
((lp204
(lp205
g107
aI400
aa(lp206
g109
aI1
aa(lp207
g111
aI12
aatp208
Rp209
ag104
((lp210
(lp211
g107
aI400
aa(lp212
g109
aI1
aa(lp213
g111
aI12
aatp214
Rp215
ag104
((lp216
(lp217
g107
aI400
aa(lp218
g109
aI2
aa(lp219
g111
aI19
aatp220
Rp221
ag104
((lp222
(lp223
g107
aI200
aa(lp224
g109
aI6
aa(lp225
g111
aI21
aatp226
Rp227
ag104
((lp228
(lp229
g107
aI400
aa(lp230
g109
aI5
aa(lp231
g111
aI13
aatp232
Rp233
ag104
((lp234
(lp235
g107
aI400
aa(lp236
g109
aI1
aa(lp237
g111
aI12
aatp238
Rp239
ag104
((lp240
(lp241
g107
aI400
aa(lp242
g109
aI5
aa(lp243
g111
aI13
aatp244
Rp245
ag104
((lp246
(lp247
g107
aI400
aa(lp248
g109
aI2
aa(lp249
g111
aI19
aatp250
Rp251
ag104
((lp252
(lp253
g107
aI400
aa(lp254
g109
aI2
aa(lp255
g111
aI19
aatp256
Rp257
ag104
((lp258
(lp259
g107
aI400
aa(lp260
g109
aI4
aa(lp261
g111
aI12
aatp262
Rp263
ag104
((lp264
(lp265
g107
aI400
aa(lp266
g109
aI1
aa(lp267
g111
aI12
aatp268
Rp269
ag104
((lp270
(lp271
g107
aI400
aa(lp272
g109
aI1
aa(lp273
g111
aI5
aatp274
Rp275
ag104
((lp276
(lp277
g107
aI400
aa(lp278
g109
aI2
aa(lp279
g111
aI19
aatp280
Rp281
ag104
((lp282
(lp283
g107
aI400
aa(lp284
g109
aI1
aa(lp285
g111
aI5
aatp286
Rp287
aaF403.9157271385193
asS'popt20'
p288
(lp289
(lp290
F0.02
aF0.05
aF0.05
aF0.05
aF0.02
aF0.39
aF0.04
aF0.0
aF0.06
aF0.04
aF0.04
aF0.0
aF0.04
aF0.04
aF0.01
aF0.03
aF0.39
aF0.02
aF0.0
aF0.02
aF0.0
aF0.05
aF0.05
aF0.0
aF0.39
aF0.03
aF0.01
aF0.0
aF0.03
aF0.0
aa(lp291
g104
((lp292
(lp293
g107
aI50
aa(lp294
g109
aI6
aa(lp295
g111
aI12
aatp296
Rp297
ag104
((lp298
(lp299
g107
aI400
aa(lp300
g109
aI1
aa(lp301
g111
aI5
aatp302
Rp303
ag104
((lp304
(lp305
g107
aI400
aa(lp306
g109
aI3
aa(lp307
g111
aI11
aatp308
Rp309
ag104
((lp310
(lp311
g107
aI400
aa(lp312
g109
aI1
aa(lp313
g111
aI14
aatp314
Rp315
ag104
((lp316
(lp317
g107
aI50
aa(lp318
g109
aI3
aa(lp319
g111
aI13
aatp320
Rp321
ag104
((lp322
(lp323
g107
aI50
aa(lp324
g109
aI6
aa(lp325
g111
aI12
aatp326
Rp327
ag104
((lp328
(lp329
g107
aI200
aa(lp330
g109
aI3
aa(lp331
g111
aI5
aatp332
Rp333
ag104
((lp334
(lp335
g107
aI400
aa(lp336
g109
aI1
aa(lp337
g111
aI12
aatp338
Rp339
ag104
((lp340
(lp341
g107
aI400
aa(lp342
g109
aI1
aa(lp343
g111
aI5
aatp344
Rp345
ag104
((lp346
(lp347
g107
aI200
aa(lp348
g109
aI2
aa(lp349
g111
aI13
aatp350
Rp351
ag104
((lp352
(lp353
g107
aI200
aa(lp354
g109
aI5
aa(lp355
g111
aI7
aatp356
Rp357
ag104
((lp358
(lp359
g107
aI400
aa(lp360
g109
aI5
aa(lp361
g111
aI18
aatp362
Rp363
ag104
((lp364
(lp365
g107
aI200
aa(lp366
g109
aI6
aa(lp367
g111
aI17
aatp368
Rp369
ag104
((lp370
(lp371
g107
aI200
aa(lp372
g109
aI2
aa(lp373
g111
aI20
aatp374
Rp375
ag104
((lp376
(lp377
g107
aI50
aa(lp378
g109
aI6
aa(lp379
g111
aI7
aatp380
Rp381
ag104
((lp382
(lp383
g107
aI100
aa(lp384
g109
aI1
aa(lp385
g111
aI18
aatp386
Rp387
ag104
((lp388
(lp389
g107
aI50
aa(lp390
g109
aI6
aa(lp391
g111
aI12
aatp392
Rp393
ag104
((lp394
(lp395
g107
aI50
aa(lp396
g109
aI3
aa(lp397
g111
aI5
aatp398
Rp399
ag104
((lp400
(lp401
g107
aI400
aa(lp402
g109
aI2
aa(lp403
g111
aI19
aatp404
Rp405
ag104
((lp406
(lp407
g107
aI50
aa(lp408
g109
aI6
aa(lp409
g111
aI12
aatp410
Rp411
ag104
((lp412
(lp413
g107
aI400
aa(lp414
g109
aI1
aa(lp415
g111
aI12
aatp416
Rp417
ag104
((lp418
(lp419
g107
aI400
aa(lp420
g109
aI1
aa(lp421
g111
aI15
aatp422
Rp423
ag104
((lp424
(lp425
g107
aI400
aa(lp426
g109
aI2
aa(lp427
g111
aI19
aatp428
Rp429
ag104
((lp430
(lp431
g107
aI400
aa(lp432
g109
aI1
aa(lp433
g111
aI12
aatp434
Rp435
ag104
((lp436
(lp437
g107
aI50
aa(lp438
g109
aI3
aa(lp439
g111
aI13
aatp440
Rp441
ag104
((lp442
(lp443
g107
aI100
aa(lp444
g109
aI2
aa(lp445
g111
aI19
aatp446
Rp447
ag104
((lp448
(lp449
g107
aI50
aa(lp450
g109
aI4
aa(lp451
g111
aI11
aatp452
Rp453
ag104
((lp454
(lp455
g107
aI400
aa(lp456
g109
aI1
aa(lp457
g111
aI5
aatp458
Rp459
ag104
((lp460
(lp461
g107
aI100
aa(lp462
g109
aI3
aa(lp463
g111
aI16
aatp464
Rp465
ag104
((lp466
(lp467
g107
aI400
aa(lp468
g109
aI1
aa(lp469
g111
aI12
aatp470
Rp471
aaF430.3977029323578
assS'SVM'
p472
(dp473
g3
(lp474
(lp475
g6
(g10
S'H\xe1z\x14\xaeG\xe1?'
p476
tp477
Rp478
ag6
(g10
S'\x14\xaeG\xe1z\x14\xde?'
p479
tp480
Rp481
ag6
(g10
S'\xe1z\x14\xaeG\xe1\xda?'
p482
tp483
Rp484
aI0
ag6
(g10
S'\xaeG\xe1z\x14\xae\xe7?'
p485
tp486
Rp487
ag6
(g10
S'\xe1z\x14\xaeG\xe1\xea?'
p488
tp489
Rp490
ag6
(g10
S'\xe1z\x14\xaeG\xe1\xe2?'
p491
tp492
Rp493
ag6
(g10
S'\xc3\xf5(\\\x8f\xc2\xd5?'
p494
tp495
Rp496
ag6
(g10
S'{\x14\xaeG\xe1z\xd4?'
p497
tp498
Rp499
ag6
(g10
S'\x1f\x85\xebQ\xb8\x1e\xe5?'
p500
tp501
Rp502
ag6
(g10
S'R\xb8\x1e\x85\xebQ\xe0?'
p503
tp504
Rp505
ag6
(g10
S'\x00\x00\x00\x00\x00\x00\xe0?'
p506
tp507
Rp508
ag6
(g10
S'\x85\xebQ\xb8\x1e\x85\xdb?'
p509
tp510
Rp511
ag6
(g10
S'ffffff\xd6?'
p512
tp513
Rp514
ag6
(g10
S'H\xe1z\x14\xaeG\xe1?'
p515
tp516
Rp517
ag6
(g10
S'333333\xe3?'
p518
tp519
Rp520
aI0
ag6
(g10
S'q=\n\xd7\xa3p\xe5?'
p521
tp522
Rp523
ag6
(g10
S'333333\xe3?'
p524
tp525
Rp526
ag6
(g10
S'R\xb8\x1e\x85\xebQ\xd8?'
p527
tp528
Rp529
ag6
(g10
S'\n\xd7\xa3p=\n\xe7?'
p530
tp531
Rp532
ag6
(g10
S'R\xb8\x1e\x85\xebQ\xd8?'
p533
tp534
Rp535
ag6
(g10
S'\x14\xaeG\xe1z\x14\xe6?'
p536
tp537
Rp538
ag6
(g10
S'\x8f\xc2\xf5(\\\x8f\xea?'
p539
tp540
Rp541
ag6
(g10
S'\\\x8f\xc2\xf5(\\\xe7?'
p542
tp543
Rp544
ag6
(g10
S'ffffff\xd6?'
p545
tp546
Rp547
ag6
(g10
S'H\xe1z\x14\xaeG\xe1?'
p548
tp549
Rp550
ag6
(g10
S'\xe1z\x14\xaeG\xe1\xda?'
p551
tp552
Rp553
ag6
(g10
S'\x8f\xc2\xf5(\\\x8f\xe2?'
p554
tp555
Rp556
ag6
(g10
S'\xaeG\xe1z\x14\xae\xd7?'
p557
tp558
Rp559
aa(lp560
g104
((lp561
(lp562
g107
aI400
aa(lp563
g109
aI1
aa(lp564
g111
aI5
aatp565
Rp566
ag104
((lp567
(lp568
g107
aI200
aa(lp569
g109
aI4
aa(lp570
g111
aI10
aatp571
Rp572
ag104
((lp573
(lp574
g107
aI400
aa(lp575
g109
aI1
aa(lp576
g111
aI5
aatp577
Rp578
ag104
((lp579
(lp580
g107
aI200
aa(lp581
g109
aI5
aa(lp582
g111
aI18
aatp583
Rp584
ag104
((lp585
(lp586
g107
aI400
aa(lp587
g109
aI2
aa(lp588
g111
aI19
aatp589
Rp590
ag104
((lp591
(lp592
g107
aI400
aa(lp593
g109
aI1
aa(lp594
g111
aI12
aatp595
Rp596
ag104
((lp597
(lp598
g107
aI400
aa(lp599
g109
aI2
aa(lp600
g111
aI19
aatp601
Rp602
ag104
((lp603
(lp604
g107
aI400
aa(lp605
g109
aI5
aa(lp606
g111
aI6
aatp607
Rp608
ag104
((lp609
(lp610
g107
aI400
aa(lp611
g109
aI2
aa(lp612
g111
aI19
aatp613
Rp614
ag104
((lp615
(lp616
g107
aI400
aa(lp617
g109
aI1
aa(lp618
g111
aI12
aatp619
Rp620
ag104
((lp621
(lp622
g107
aI400
aa(lp623
g109
aI1
aa(lp624
g111
aI5
aatp625
Rp626
ag104
((lp627
(lp628
g107
aI400
aa(lp629
g109
aI2
aa(lp630
g111
aI19
aatp631
Rp632
ag104
((lp633
(lp634
g107
aI200
aa(lp635
g109
aI6
aa(lp636
g111
aI18
aatp637
Rp638
ag104
((lp639
(lp640
g107
aI400
aa(lp641
g109
aI2
aa(lp642
g111
aI19
aatp643
Rp644
ag104
((lp645
(lp646
g107
aI400
aa(lp647
g109
aI2
aa(lp648
g111
aI9
aatp649
Rp650
ag104
((lp651
(lp652
g107
aI400
aa(lp653
g109
aI2
aa(lp654
g111
aI19
aatp655
Rp656
ag104
((lp657
(lp658
g107
aI200
aa(lp659
g109
aI3
aa(lp660
g111
aI11
aatp661
Rp662
ag104
((lp663
(lp664
g107
aI200
aa(lp665
g109
aI2
aa(lp666
g111
aI21
aatp667
Rp668
ag104
((lp669
(lp670
g107
aI50
aa(lp671
g109
aI3
aa(lp672
g111
aI5
aatp673
Rp674
ag104
((lp675
(lp676
g107
aI400
aa(lp677
g109
aI3
aa(lp678
g111
aI16
aatp679
Rp680
ag104
((lp681
(lp682
g107
aI400
aa(lp683
g109
aI5
aa(lp684
g111
aI13
aatp685
Rp686
ag104
((lp687
(lp688
g107
aI400
aa(lp689
g109
aI2
aa(lp690
g111
aI19
aatp691
Rp692
ag104
((lp693
(lp694
g107
aI200
aa(lp695
g109
aI6
aa(lp696
g111
aI11
aatp697
Rp698
ag104
((lp699
(lp700
g107
aI200
aa(lp701
g109
aI6
aa(lp702
g111
aI18
aatp703
Rp704
ag104
((lp705
(lp706
g107
aI400
aa(lp707
g109
aI2
aa(lp708
g111
aI19
aatp709
Rp710
ag104
((lp711
(lp712
g107
aI400
aa(lp713
g109
aI5
aa(lp714
g111
aI13
aatp715
Rp716
ag104
((lp717
(lp718
g107
aI100
aa(lp719
g109
aI3
aa(lp720
g111
aI13
aatp721
Rp722
ag104
((lp723
(lp724
g107
aI400
aa(lp725
g109
aI2
aa(lp726
g111
aI19
aatp727
Rp728
ag104
((lp729
(lp730
g107
aI400
aa(lp731
g109
aI1
aa(lp732
g111
aI5
aatp733
Rp734
ag104
((lp735
(lp736
g107
aI400
aa(lp737
g109
aI1
aa(lp738
g111
aI5
aatp739
Rp740
aaF254.49694395065308
asg288
(lp741
(lp742
F0.05
aF0.02
aF0.41
aF0.41
aF0.4
aF0.05
aF0.35
aF0.02
aF0.41
aF0.03
aF0.06
aF0.03
aF0.03
aF0.39
aF0.03
aF0.02
aF0.39
aF0.4
aF0.4
aF0.03
aF0.02
aF0.41
aF0.03
aF0.39
aF0.43
aF0.04
aF0.4
aF0.27
aF0.07
aF0.39
aa(lp743
g104
((lp744
(lp745
g107
aI50
aa(lp746
g109
aI3
aa(lp747
g111
aI5
aatp748
Rp749
ag104
((lp750
(lp751
g107
aI50
aa(lp752
g109
aI3
aa(lp753
g111
aI13
aatp754
Rp755
ag104
((lp756
(lp757
g107
aI100
aa(lp758
g109
aI1
aa(lp759
g111
aI18
aatp760
Rp761
ag104
((lp762
(lp763
g107
aI50
aa(lp764
g109
aI6
aa(lp765
g111
aI17
aatp766
Rp767
ag104
((lp768
(lp769
g107
aI50
aa(lp770
g109
aI3
aa(lp771
g111
aI13
aatp772
Rp773
ag104
((lp774
(lp775
g107
aI50
aa(lp776
g109
aI3
aa(lp777
g111
aI16
aatp778
Rp779
ag104
((lp780
(lp781
g107
aI50
aa(lp782
g109
aI6
aa(lp783
g111
aI12
aatp784
Rp785
ag104
((lp786
(lp787
g107
aI50
aa(lp788
g109
aI2
aa(lp789
g111
aI20
aatp790
Rp791
ag104
((lp792
(lp793
g107
aI100
aa(lp794
g109
aI2
aa(lp795
g111
aI19
aatp796
Rp797
ag104
((lp798
(lp799
g107
aI400
aa(lp800
g109
aI2
aa(lp801
g111
aI19
aatp802
Rp803
ag104
((lp804
(lp805
g107
aI200
aa(lp806
g109
aI3
aa(lp807
g111
aI11
aatp808
Rp809
ag104
((lp810
(lp811
g107
aI100
aa(lp812
g109
aI5
aa(lp813
g111
aI17
aatp814
Rp815
ag104
((lp816
(lp817
g107
aI400
aa(lp818
g109
aI6
aa(lp819
g111
aI15
aatp820
Rp821
ag104
((lp822
(lp823
g107
aI50
aa(lp824
g109
aI6
aa(lp825
g111
aI12
aatp826
Rp827
ag104
((lp828
(lp829
g107
aI50
aa(lp830
g109
aI3
aa(lp831
g111
aI21
aatp832
Rp833
ag104
((lp834
(lp835
g107
aI400
aa(lp836
g109
aI1
aa(lp837
g111
aI15
aatp838
Rp839
ag104
((lp840
(lp841
g107
aI50
aa(lp842
g109
aI3
aa(lp843
g111
aI13
aatp844
Rp845
ag104
((lp846
(lp847
g107
aI400
aa(lp848
g109
aI3
aa(lp849
g111
aI11
aatp850
Rp851
ag104
((lp852
(lp853
g107
aI50
aa(lp854
g109
aI3
aa(lp855
g111
aI5
aatp856
Rp857
ag104
((lp858
(lp859
g107
aI50
aa(lp860
g109
aI3
aa(lp861
g111
aI13
aatp862
Rp863
ag104
((lp864
(lp865
g107
aI50
aa(lp866
g109
aI3
aa(lp867
g111
aI15
aatp868
Rp869
ag104
((lp870
(lp871
g107
aI50
aa(lp872
g109
aI6
aa(lp873
g111
aI12
aatp874
Rp875
ag104
((lp876
(lp877
g107
aI50
aa(lp878
g109
aI1
aa(lp879
g111
aI19
aatp880
Rp881
ag104
((lp882
(lp883
g107
aI100
aa(lp884
g109
aI5
aa(lp885
g111
aI8
aatp886
Rp887
ag104
((lp888
(lp889
g107
aI50
aa(lp890
g109
aI1
aa(lp891
g111
aI15
aatp892
Rp893
ag104
((lp894
(lp895
g107
aI400
aa(lp896
g109
aI1
aa(lp897
g111
aI15
aatp898
Rp899
ag104
((lp900
(lp901
g107
aI50
aa(lp902
g109
aI6
aa(lp903
g111
aI17
aatp904
Rp905
ag104
((lp906
(lp907
g107
aI200
aa(lp908
g109
aI4
aa(lp909
g111
aI11
aatp910
Rp911
ag104
((lp912
(lp913
g107
aI400
aa(lp914
g109
aI6
aa(lp915
g111
aI10
aatp916
Rp917
ag104
((lp918
(lp919
g107
aI50
aa(lp920
g109
aI6
aa(lp921
g111
aI17
aatp922
Rp923
aaF266.9263310432434
assS'NB'
p924
(dp925
g3
(lp926
(lp927
g6
(g10
S'ffffff\xd6?'
p928
tp929
Rp930
ag6
(g10
S'H\xe1z\x14\xaeG\xd1?'
p931
tp932
Rp933
ag6
(g10
S'\xecQ\xb8\x1e\x85\xeb\xd1?'
p934
tp935
Rp936
ag6
(g10
S'ffffff\xd6?'
p937
tp938
Rp939
ag6
(g10
S'\n\xd7\xa3p=\n\xd7?'
p940
tp941
Rp942
ag6
(g10
S'\xecQ\xb8\x1e\x85\xeb\xd1?'
p943
tp944
Rp945
ag6
(g10
S'\xc3\xf5(\\\x8f\xc2\xd5?'
p946
tp947
Rp948
ag6
(g10
S'\xc3\xf5(\\\x8f\xc2\xd5?'
p949
tp950
Rp951
ag6
(g10
S'ffffff\xd6?'
p952
tp953
Rp954
ag6
(g10
S'\xc3\xf5(\\\x8f\xc2\xd5?'
p955
tp956
Rp957
ag6
(g10
S'\xd7\xa3p=\n\xd7\xd3?'
p958
tp959
Rp960
ag6
(g10
S'ffffff\xd6?'
p961
tp962
Rp963
ag6
(g10
S'\xaeG\xe1z\x14\xae\xd7?'
p964
tp965
Rp966
ag6
(g10
S'\xc3\xf5(\\\x8f\xc2\xd5?'
p967
tp968
Rp969
ag6
(g10
S'ffffff\xd6?'
p970
tp971
Rp972
ag6
(g10
S'ffffff\xd6?'
p973
tp974
Rp975
ag6
(g10
S'\xc3\xf5(\\\x8f\xc2\xd5?'
p976
tp977
Rp978
ag6
(g10
S'\x8f\xc2\xf5(\\\x8f\xd2?'
p979
tp980
Rp981
ag6
(g10
S'\xc3\xf5(\\\x8f\xc2\xd5?'
p982
tp983
Rp984
ag6
(g10
S'{\x14\xaeG\xe1z\xd4?'
p985
tp986
Rp987
ag6
(g10
S'\xc3\xf5(\\\x8f\xc2\xd5?'
p988
tp989
Rp990
ag6
(g10
S'\xc3\xf5(\\\x8f\xc2\xd5?'
p991
tp992
Rp993
ag6
(g10
S'\x8f\xc2\xf5(\\\x8f\xd2?'
p994
tp995
Rp996
ag6
(g10
S'\xf6(\\\x8f\xc2\xf5\xd8?'
p997
tp998
Rp999
ag6
(g10
S'\n\xd7\xa3p=\n\xd7?'
p1000
tp1001
Rp1002
ag6
(g10
S'R\xb8\x1e\x85\xebQ\xd8?'
p1003
tp1004
Rp1005
ag6
(g10
S'{\x14\xaeG\xe1z\xd4?'
p1006
tp1007
Rp1008
ag6
(g10
S'\xaeG\xe1z\x14\xae\xd7?'
p1009
tp1010
Rp1011
ag6
(g10
S'\n\xd7\xa3p=\n\xd7?'
p1012
tp1013
Rp1014
ag6
(g10
S'R\xb8\x1e\x85\xebQ\xd8?'
p1015
tp1016
Rp1017
aa(lp1018
g104
((lp1019
(lp1020
g107
aI400
aa(lp1021
g109
aI1
aa(lp1022
g111
aI12
aatp1023
Rp1024
ag104
((lp1025
(lp1026
g107
aI400
aa(lp1027
g109
aI2
aa(lp1028
g111
aI19
aatp1029
Rp1030
ag104
((lp1031
(lp1032
g107
aI50
aa(lp1033
g109
aI3
aa(lp1034
g111
aI13
aatp1035
Rp1036
ag104
((lp1037
(lp1038
g107
aI50
aa(lp1039
g109
aI5
aa(lp1040
g111
aI11
aatp1041
Rp1042
ag104
((lp1043
(lp1044
g107
aI50
aa(lp1045
g109
aI1
aa(lp1046
g111
aI6
aatp1047
Rp1048
ag104
((lp1049
(lp1050
g107
aI50
aa(lp1051
g109
aI3
aa(lp1052
g111
aI13
aatp1053
Rp1054
ag104
((lp1055
(lp1056
g107
aI100
aa(lp1057
g109
aI4
aa(lp1058
g111
aI17
aatp1059
Rp1060
ag104
((lp1061
(lp1062
g107
aI400
aa(lp1063
g109
aI1
aa(lp1064
g111
aI15
aatp1065
Rp1066
ag104
((lp1067
(lp1068
g107
aI50
aa(lp1069
g109
aI6
aa(lp1070
g111
aI17
aatp1071
Rp1072
ag104
((lp1073
(lp1074
g107
aI50
aa(lp1075
g109
aI3
aa(lp1076
g111
aI15
aatp1077
Rp1078
ag104
((lp1079
(lp1080
g107
aI50
aa(lp1081
g109
aI3
aa(lp1082
g111
aI13
aatp1083
Rp1084
ag104
((lp1085
(lp1086
g107
aI50
aa(lp1087
g109
aI6
aa(lp1088
g111
aI11
aatp1089
Rp1090
ag104
((lp1091
(lp1092
g107
aI50
aa(lp1093
g109
aI5
aa(lp1094
g111
aI18
aatp1095
Rp1096
ag104
((lp1097
(lp1098
g107
aI400
aa(lp1099
g109
aI2
aa(lp1100
g111
aI19
aatp1101
Rp1102
ag104
((lp1103
(lp1104
g107
aI50
aa(lp1105
g109
aI3
aa(lp1106
g111
aI5
aatp1107
Rp1108
ag104
((lp1109
(lp1110
g107
aI100
aa(lp1111
g109
aI6
aa(lp1112
g111
aI14
aatp1113
Rp1114
ag104
((lp1115
(lp1116
g107
aI200
aa(lp1117
g109
aI5
aa(lp1118
g111
aI20
aatp1119
Rp1120
ag104
((lp1121
(lp1122
g107
aI200
aa(lp1123
g109
aI5
aa(lp1124
g111
aI12
aatp1125
Rp1126
ag104
((lp1127
(lp1128
g107
aI100
aa(lp1129
g109
aI3
aa(lp1130
g111
aI16
aatp1131
Rp1132
ag104
((lp1133
(lp1134
g107
aI100
aa(lp1135
g109
aI2
aa(lp1136
g111
aI19
aatp1137
Rp1138
ag104
((lp1139
(lp1140
g107
aI50
aa(lp1141
g109
aI1
aa(lp1142
g111
aI14
aatp1143
Rp1144
ag104
((lp1145
(lp1146
g107
aI50
aa(lp1147
g109
aI3
aa(lp1148
g111
aI5
aatp1149
Rp1150
ag104
((lp1151
(lp1152
g107
aI100
aa(lp1153
g109
aI1
aa(lp1154
g111
aI16
aatp1155
Rp1156
ag104
((lp1157
(lp1158
g107
aI50
aa(lp1159
g109
aI3
aa(lp1160
g111
aI5
aatp1161
Rp1162
ag104
((lp1163
(lp1164
g107
aI50
aa(lp1165
g109
aI3
aa(lp1166
g111
aI13
aatp1167
Rp1168
ag104
((lp1169
(lp1170
g107
aI50
aa(lp1171
g109
aI3
aa(lp1172
g111
aI13
aatp1173
Rp1174
ag104
((lp1175
(lp1176
g107
aI50
aa(lp1177
g109
aI6
aa(lp1178
g111
aI12
aatp1179
Rp1180
ag104
((lp1181
(lp1182
g107
aI50
aa(lp1183
g109
aI3
aa(lp1184
g111
aI13
aatp1185
Rp1186
ag104
((lp1187
(lp1188
g107
aI50
aa(lp1189
g109
aI1
aa(lp1190
g111
aI15
aatp1191
Rp1192
ag104
((lp1193
(lp1194
g107
aI50
aa(lp1195
g109
aI3
aa(lp1196
g111
aI15
aatp1197
Rp1198
aaF148.37470698356628
asg288
(lp1199
(lp1200
F0.08
aF0.06
aF0.05
aF0.05
aF0.07
aF0.05
aF0.07
aF0.06
aF0.05
aF0.06
aF0.07
aF0.05
aF0.07
aF0.04
aF0.05
aF0.06
aF0.09
aF0.05
aF0.06
aF0.05
aF0.07
aF0.05
aF0.06
aF0.12
aF0.08
aF0.05
aF0.07
aF0.04
aF0.06
aF0.13
aa(lp1201
g104
((lp1202
(lp1203
g107
aI400
aa(lp1204
g109
aI2
aa(lp1205
g111
aI19
aatp1206
Rp1207
ag104
((lp1208
(lp1209
g107
aI50
aa(lp1210
g109
aI3
aa(lp1211
g111
aI15
aatp1212
Rp1213
ag104
((lp1214
(lp1215
g107
aI50
aa(lp1216
g109
aI1
aa(lp1217
g111
aI14
aatp1218
Rp1219
ag104
((lp1220
(lp1221
g107
aI50
aa(lp1222
g109
aI4
aa(lp1223
g111
aI11
aatp1224
Rp1225
ag104
((lp1226
(lp1227
g107
aI100
aa(lp1228
g109
aI5
aa(lp1229
g111
aI13
aatp1230
Rp1231
ag104
((lp1232
(lp1233
g107
aI50
aa(lp1234
g109
aI6
aa(lp1235
g111
aI17
aatp1236
Rp1237
ag104
((lp1238
(lp1239
g107
aI200
aa(lp1240
g109
aI2
aa(lp1241
g111
aI21
aatp1242
Rp1243
ag104
((lp1244
(lp1245
g107
aI100
aa(lp1246
g109
aI5
aa(lp1247
g111
aI19
aatp1248
Rp1249
ag104
((lp1250
(lp1251
g107
aI100
aa(lp1252
g109
aI6
aa(lp1253
g111
aI7
aatp1254
Rp1255
ag104
((lp1256
(lp1257
g107
aI50
aa(lp1258
g109
aI2
aa(lp1259
g111
aI20
aatp1260
Rp1261
ag104
((lp1262
(lp1263
g107
aI400
aa(lp1264
g109
aI1
aa(lp1265
g111
aI12
aatp1266
Rp1267
ag104
((lp1268
(lp1269
g107
aI100
aa(lp1270
g109
aI5
aa(lp1271
g111
aI8
aatp1272
Rp1273
ag104
((lp1274
(lp1275
g107
aI400
aa(lp1276
g109
aI1
aa(lp1277
g111
aI15
aatp1278
Rp1279
ag104
((lp1280
(lp1281
g107
aI50
aa(lp1282
g109
aI6
aa(lp1283
g111
aI17
aatp1284
Rp1285
ag104
((lp1286
(lp1287
g107
aI50
aa(lp1288
g109
aI6
aa(lp1289
g111
aI15
aatp1290
Rp1291
ag104
((lp1292
(lp1293
g107
aI50
aa(lp1294
g109
aI6
aa(lp1295
g111
aI12
aatp1296
Rp1297
ag104
((lp1298
(lp1299
g107
aI400
aa(lp1300
g109
aI1
aa(lp1301
g111
aI15
aatp1302
Rp1303
ag104
((lp1304
(lp1305
g107
aI400
aa(lp1306
g109
aI3
aa(lp1307
g111
aI11
aatp1308
Rp1309
ag104
((lp1310
(lp1311
g107
aI100
aa(lp1312
g109
aI2
aa(lp1313
g111
aI17
aatp1314
Rp1315
ag104
((lp1316
(lp1317
g107
aI50
aa(lp1318
g109
aI3
aa(lp1319
g111
aI20
aatp1320
Rp1321
ag104
((lp1322
(lp1323
g107
aI400
aa(lp1324
g109
aI2
aa(lp1325
g111
aI19
aatp1326
Rp1327
ag104
((lp1328
(lp1329
g107
aI50
aa(lp1330
g109
aI3
aa(lp1331
g111
aI5
aatp1332
Rp1333
ag104
((lp1334
(lp1335
g107
aI100
aa(lp1336
g109
aI3
aa(lp1337
g111
aI13
aatp1338
Rp1339
ag104
((lp1340
(lp1341
g107
aI50
aa(lp1342
g109
aI1
aa(lp1343
g111
aI14
aatp1344
Rp1345
ag104
((lp1346
(lp1347
g107
aI50
aa(lp1348
g109
aI6
aa(lp1349
g111
aI7
aatp1350
Rp1351
ag104
((lp1352
(lp1353
g107
aI50
aa(lp1354
g109
aI3
aa(lp1355
g111
aI13
aatp1356
Rp1357
ag104
((lp1358
(lp1359
g107
aI50
aa(lp1360
g109
aI3
aa(lp1361
g111
aI21
aatp1362
Rp1363
ag104
((lp1364
(lp1365
g107
aI50
aa(lp1366
g109
aI2
aa(lp1367
g111
aI13
aatp1368
Rp1369
ag104
((lp1370
(lp1371
g107
aI50
aa(lp1372
g109
aI5
aa(lp1373
g111
aI7
aatp1374
Rp1375
ag104
((lp1376
(lp1377
g107
aI50
aa(lp1378
g109
aI5
aa(lp1379
g111
aI11
aatp1380
Rp1381
aaF162.0521650314331
assS'RF'
p1382
(dp1383
g3
(lp1384
(lp1385
g6
(g10
S'=\n\xd7\xa3p=\xda?'
p1386
tp1387
Rp1388
ag6
(g10
S'=\n\xd7\xa3p=\xda?'
p1389
tp1390
Rp1391
ag6
(g10
S'\xa4p=\n\xd7\xa3\xd0?'
p1392
tp1393
Rp1394
ag6
(g10
S'\xd7\xa3p=\n\xd7\xd3?'
p1395
tp1396
Rp1397
ag6
(g10
S'\xb8\x1e\x85\xebQ\xb8\xce?'
p1398
tp1399
Rp1400
ag6
(g10
S'\xd7\xa3p=\n\xd7\xd3?'
p1401
tp1402
Rp1403
ag6
(g10
S'\xd7\xa3p=\n\xd7\xd3?'
p1404
tp1405
Rp1406
ag6
(g10
S'\xb8\x1e\x85\xebQ\xb8\xce?'
p1407
tp1408
Rp1409
ag6
(g10
S'\xd7\xa3p=\n\xd7\xd3?'
p1410
tp1411
Rp1412
ag6
(g10
S'\xb8\x1e\x85\xebQ\xb8\xce?'
p1413
tp1414
Rp1415
ag6
(g10
S'\x00\x00\x00\x00\x00\x00\xd0?'
p1416
tp1417
Rp1418
ag6
(g10
S'=\n\xd7\xa3p=\xda?'
p1419
tp1420
Rp1421
ag6
(g10
S'\x1f\x85\xebQ\xb8\x1e\xd5?'
p1422
tp1423
Rp1424
ag6
(g10
S'q=\n\xd7\xa3p\xcd?'
p1425
tp1426
Rp1427
ag6
(g10
S'\xd7\xa3p=\n\xd7\xd3?'
p1428
tp1429
Rp1430
ag6
(g10
S'=\n\xd7\xa3p=\xda?'
p1431
tp1432
Rp1433
ag6
(g10
S'q=\n\xd7\xa3p\xcd?'
p1434
tp1435
Rp1436
ag6
(g10
S'\xd7\xa3p=\n\xd7\xd3?'
p1437
tp1438
Rp1439
ag6
(g10
S'\x00\x00\x00\x00\x00\x00\xe0?'
p1440
tp1441
Rp1442
ag6
(g10
S'\xa4p=\n\xd7\xa3\xd0?'
p1443
tp1444
Rp1445
ag6
(g10
S'\xb8\x1e\x85\xebQ\xb8\xce?'
p1446
tp1447
Rp1448
ag6
(g10
S'ffffff\xd6?'
p1449
tp1450
Rp1451
ag6
(g10
S'q=\n\xd7\xa3p\xcd?'
p1452
tp1453
Rp1454
ag6
(g10
S'\xf6(\\\x8f\xc2\xf5\xd8?'
p1455
tp1456
Rp1457
ag6
(g10
S'\xb8\x1e\x85\xebQ\xb8\xce?'
p1458
tp1459
Rp1460
ag6
(g10
S'q=\n\xd7\xa3p\xcd?'
p1461
tp1462
Rp1463
ag6
(g10
S'\x00\x00\x00\x00\x00\x00\xd0?'
p1464
tp1465
Rp1466
ag6
(g10
S'\x1f\x85\xebQ\xb8\x1e\xd5?'
p1467
tp1468
Rp1469
ag6
(g10
S'q=\n\xd7\xa3p\xcd?'
p1470
tp1471
Rp1472
ag6
(g10
S'333333\xd3?'
p1473
tp1474
Rp1475
aa(lp1476
g104
((lp1477
(lp1478
g107
aI200
aa(lp1479
g109
aI6
aa(lp1480
g111
aI11
aatp1481
Rp1482
ag104
((lp1483
(lp1484
g107
aI200
aa(lp1485
g109
aI3
aa(lp1486
g111
aI5
aatp1487
Rp1488
ag104
((lp1489
(lp1490
g107
aI400
aa(lp1491
g109
aI1
aa(lp1492
g111
aI12
aatp1493
Rp1494
ag104
((lp1495
(lp1496
g107
aI400
aa(lp1497
g109
aI5
aa(lp1498
g111
aI13
aatp1499
Rp1500
ag104
((lp1501
(lp1502
g107
aI400
aa(lp1503
g109
aI2
aa(lp1504
g111
aI19
aatp1505
Rp1506
ag104
((lp1507
(lp1508
g107
aI400
aa(lp1509
g109
aI5
aa(lp1510
g111
aI13
aatp1511
Rp1512
ag104
((lp1513
(lp1514
g107
aI400
aa(lp1515
g109
aI2
aa(lp1516
g111
aI19
aatp1517
Rp1518
ag104
((lp1519
(lp1520
g107
aI400
aa(lp1521
g109
aI4
aa(lp1522
g111
aI16
aatp1523
Rp1524
ag104
((lp1525
(lp1526
g107
aI200
aa(lp1527
g109
aI3
aa(lp1528
g111
aI11
aatp1529
Rp1530
ag104
((lp1531
(lp1532
g107
aI400
aa(lp1533
g109
aI6
aa(lp1534
g111
aI12
aatp1535
Rp1536
ag104
((lp1537
(lp1538
g107
aI400
aa(lp1539
g109
aI4
aa(lp1540
g111
aI12
aatp1541
Rp1542
ag104
((lp1543
(lp1544
g107
aI400
aa(lp1545
g109
aI4
aa(lp1546
g111
aI12
aatp1547
Rp1548
ag104
((lp1549
(lp1550
g107
aI200
aa(lp1551
g109
aI6
aa(lp1552
g111
aI9
aatp1553
Rp1554
ag104
((lp1555
(lp1556
g107
aI400
aa(lp1557
g109
aI6
aa(lp1558
g111
aI12
aatp1559
Rp1560
ag104
((lp1561
(lp1562
g107
aI400
aa(lp1563
g109
aI6
aa(lp1564
g111
aI12
aatp1565
Rp1566
ag104
((lp1567
(lp1568
g107
aI400
aa(lp1569
g109
aI5
aa(lp1570
g111
aI13
aatp1571
Rp1572
ag104
((lp1573
(lp1574
g107
aI400
aa(lp1575
g109
aI5
aa(lp1576
g111
aI13
aatp1577
Rp1578
ag104
((lp1579
(lp1580
g107
aI400
aa(lp1581
g109
aI2
aa(lp1582
g111
aI19
aatp1583
Rp1584
ag104
((lp1585
(lp1586
g107
aI200
aa(lp1587
g109
aI3
aa(lp1588
g111
aI5
aatp1589
Rp1590
ag104
((lp1591
(lp1592
g107
aI400
aa(lp1593
g109
aI1
aa(lp1594
g111
aI5
aatp1595
Rp1596
ag104
((lp1597
(lp1598
g107
aI400
aa(lp1599
g109
aI6
aa(lp1600
g111
aI12
aatp1601
Rp1602
ag104
((lp1603
(lp1604
g107
aI200
aa(lp1605
g109
aI3
aa(lp1606
g111
aI5
aatp1607
Rp1608
ag104
((lp1609
(lp1610
g107
aI400
aa(lp1611
g109
aI1
aa(lp1612
g111
aI5
aatp1613
Rp1614
ag104
((lp1615
(lp1616
g107
aI200
aa(lp1617
g109
aI6
aa(lp1618
g111
aI9
aatp1619
Rp1620
ag104
((lp1621
(lp1622
g107
aI400
aa(lp1623
g109
aI2
aa(lp1624
g111
aI19
aatp1625
Rp1626
ag104
((lp1627
(lp1628
g107
aI400
aa(lp1629
g109
aI1
aa(lp1630
g111
aI12
aatp1631
Rp1632
ag104
((lp1633
(lp1634
g107
aI400
aa(lp1635
g109
aI6
aa(lp1636
g111
aI12
aatp1637
Rp1638
ag104
((lp1639
(lp1640
g107
aI400
aa(lp1641
g109
aI5
aa(lp1642
g111
aI13
aatp1643
Rp1644
ag104
((lp1645
(lp1646
g107
aI400
aa(lp1647
g109
aI5
aa(lp1648
g111
aI13
aatp1649
Rp1650
ag104
((lp1651
(lp1652
g107
aI400
aa(lp1653
g109
aI6
aa(lp1654
g111
aI12
aatp1655
Rp1656
aaF236.81614685058594
asg288
(lp1657
(lp1658
F0.05
aF0.06
aF0.1
aF0.41
aF0.1
aF0.11
aF0.03
aF0.4
aF0.1
aF0.41
aF0.05
aF0.41
aF0.05
aF0.41
aF0.08
aF0.41
aF0.04
aF0.05
aF0.41
aF0.06
aF0.1
aF0.01
aF0.41
aF0.11
aF0.04
aF0.06
aF0.04
aF0.47
aF0.41
aF0.0
aa(lp1659
g104
((lp1660
(lp1661
g107
aI400
aa(lp1662
g109
aI1
aa(lp1663
g111
aI5
aatp1664
Rp1665
ag104
((lp1666
(lp1667
g107
aI200
aa(lp1668
g109
aI6
aa(lp1669
g111
aI11
aatp1670
Rp1671
ag104
((lp1672
(lp1673
g107
aI400
aa(lp1674
g109
aI2
aa(lp1675
g111
aI16
aatp1676
Rp1677
ag104
((lp1678
(lp1679
g107
aI100
aa(lp1680
g109
aI3
aa(lp1681
g111
aI13
aatp1682
Rp1683
ag104
((lp1684
(lp1685
g107
aI400
aa(lp1686
g109
aI5
aa(lp1687
g111
aI10
aatp1688
Rp1689
ag104
((lp1690
(lp1691
g107
aI400
aa(lp1692
g109
aI1
aa(lp1693
g111
aI12
aatp1694
Rp1695
ag104
((lp1696
(lp1697
g107
aI50
aa(lp1698
g109
aI6
aa(lp1699
g111
aI12
aatp1700
Rp1701
ag104
((lp1702
(lp1703
g107
aI50
aa(lp1704
g109
aI6
aa(lp1705
g111
aI14
aatp1706
Rp1707
ag104
((lp1708
(lp1709
g107
aI400
aa(lp1710
g109
aI1
aa(lp1711
g111
aI12
aatp1712
Rp1713
ag104
((lp1714
(lp1715
g107
aI50
aa(lp1716
g109
aI3
aa(lp1717
g111
aI5
aatp1718
Rp1719
ag104
((lp1720
(lp1721
g107
aI200
aa(lp1722
g109
aI3
aa(lp1723
g111
aI5
aatp1724
Rp1725
ag104
((lp1726
(lp1727
g107
aI100
aa(lp1728
g109
aI4
aa(lp1729
g111
aI21
aatp1730
Rp1731
ag104
((lp1732
(lp1733
g107
aI200
aa(lp1734
g109
aI2
aa(lp1735
g111
aI21
aatp1736
Rp1737
ag104
((lp1738
(lp1739
g107
aI50
aa(lp1740
g109
aI1
aa(lp1741
g111
aI19
aatp1742
Rp1743
ag104
((lp1744
(lp1745
g107
aI400
aa(lp1746
g109
aI2
aa(lp1747
g111
aI18
aatp1748
Rp1749
ag104
((lp1750
(lp1751
g107
aI50
aa(lp1752
g109
aI3
aa(lp1753
g111
aI5
aatp1754
Rp1755
ag104
((lp1756
(lp1757
g107
aI100
aa(lp1758
g109
aI3
aa(lp1759
g111
aI16
aatp1760
Rp1761
ag104
((lp1762
(lp1763
g107
aI200
aa(lp1764
g109
aI1
aa(lp1765
g111
aI20
aatp1766
Rp1767
ag104
((lp1768
(lp1769
g107
aI50
aa(lp1770
g109
aI4
aa(lp1771
g111
aI11
aatp1772
Rp1773
ag104
((lp1774
(lp1775
g107
aI200
aa(lp1776
g109
aI1
aa(lp1777
g111
aI17
aatp1778
Rp1779
ag104
((lp1780
(lp1781
g107
aI400
aa(lp1782
g109
aI2
aa(lp1783
g111
aI19
aatp1784
Rp1785
ag104
((lp1786
(lp1787
g107
aI200
aa(lp1788
g109
aI3
aa(lp1789
g111
aI17
aatp1790
Rp1791
ag104
((lp1792
(lp1793
g107
aI50
aa(lp1794
g109
aI3
aa(lp1795
g111
aI5
aatp1796
Rp1797
ag104
((lp1798
(lp1799
g107
aI400
aa(lp1800
g109
aI2
aa(lp1801
g111
aI15
aatp1802
Rp1803
ag104
((lp1804
(lp1805
g107
aI100
aa(lp1806
g109
aI4
aa(lp1807
g111
aI17
aatp1808
Rp1809
ag104
((lp1810
(lp1811
g107
aI200
aa(lp1812
g109
aI3
aa(lp1813
g111
aI11
aatp1814
Rp1815
ag104
((lp1816
(lp1817
g107
aI100
aa(lp1818
g109
aI3
aa(lp1819
g111
aI13
aatp1820
Rp1821
ag104
((lp1822
(lp1823
g107
aI400
aa(lp1824
g109
aI5
aa(lp1825
g111
aI13
aatp1826
Rp1827
ag104
((lp1828
(lp1829
g107
aI50
aa(lp1830
g109
aI6
aa(lp1831
g111
aI12
aatp1832
Rp1833
ag104
((lp1834
(lp1835
g107
aI100
aa(lp1836
g109
aI1
aa(lp1837
g111
aI20
aatp1838
Rp1839
aaF255.41792392730713
assS'LR'
p1840
(dp1841
g3
(lp1842
(lp1843
g6
(g10
S'R\xb8\x1e\x85\xebQ\xd8?'
p1844
tp1845
Rp1846
ag6
(g10
S'\n\xd7\xa3p=\n\xd7?'
p1847
tp1848
Rp1849
ag6
(g10
S'\xf6(\\\x8f\xc2\xf5\xd8?'
p1850
tp1851
Rp1852
ag6
(g10
S'\x9a\x99\x99\x99\x99\x99\xd9?'
p1853
tp1854
Rp1855
ag6
(g10
S'\xf6(\\\x8f\xc2\xf5\xd8?'
p1856
tp1857
Rp1858
ag6
(g10
S'R\xb8\x1e\x85\xebQ\xd8?'
p1859
tp1860
Rp1861
ag6
(g10
S'\xaeG\xe1z\x14\xae\xd7?'
p1862
tp1863
Rp1864
ag6
(g10
S'\xf6(\\\x8f\xc2\xf5\xd8?'
p1865
tp1866
Rp1867
ag6
(g10
S'\xf6(\\\x8f\xc2\xf5\xd8?'
p1868
tp1869
Rp1870
ag6
(g10
S'R\xb8\x1e\x85\xebQ\xd8?'
p1871
tp1872
Rp1873
ag6
(g10
S'\n\xd7\xa3p=\n\xd7?'
p1874
tp1875
Rp1876
ag6
(g10
S'ffffff\xd6?'
p1877
tp1878
Rp1879
ag6
(g10
S'=\n\xd7\xa3p=\xda?'
p1880
tp1881
Rp1882
ag6
(g10
S'ffffff\xd6?'
p1883
tp1884
Rp1885
ag6
(g10
S'\x9a\x99\x99\x99\x99\x99\xd9?'
p1886
tp1887
Rp1888
ag6
(g10
S'\x9a\x99\x99\x99\x99\x99\xd9?'
p1889
tp1890
Rp1891
ag6
(g10
S'\xf6(\\\x8f\xc2\xf5\xd8?'
p1892
tp1893
Rp1894
ag6
(g10
S'\x9a\x99\x99\x99\x99\x99\xd9?'
p1895
tp1896
Rp1897
ag6
(g10
S'=\n\xd7\xa3p=\xda?'
p1898
tp1899
Rp1900
ag6
(g10
S'\xaeG\xe1z\x14\xae\xd7?'
p1901
tp1902
Rp1903
ag6
(g10
S'R\xb8\x1e\x85\xebQ\xd8?'
p1904
tp1905
Rp1906
ag6
(g10
S'\xf6(\\\x8f\xc2\xf5\xd8?'
p1907
tp1908
Rp1909
ag6
(g10
S'\xf6(\\\x8f\xc2\xf5\xd8?'
p1910
tp1911
Rp1912
ag6
(g10
S'\xaeG\xe1z\x14\xae\xd7?'
p1913
tp1914
Rp1915
ag6
(g10
S'R\xb8\x1e\x85\xebQ\xd8?'
p1916
tp1917
Rp1918
ag6
(g10
S'R\xb8\x1e\x85\xebQ\xd8?'
p1919
tp1920
Rp1921
ag6
(g10
S'\x9a\x99\x99\x99\x99\x99\xd9?'
p1922
tp1923
Rp1924
ag6
(g10
S'\xf6(\\\x8f\xc2\xf5\xd8?'
p1925
tp1926
Rp1927
ag6
(g10
S'=\n\xd7\xa3p=\xda?'
p1928
tp1929
Rp1930
ag6
(g10
S'ffffff\xd6?'
p1931
tp1932
Rp1933
aa(lp1934
g104
((lp1935
(lp1936
g107
aI400
aa(lp1937
g109
aI1
aa(lp1938
g111
aI12
aatp1939
Rp1940
ag104
((lp1941
(lp1942
g107
aI400
aa(lp1943
g109
aI2
aa(lp1944
g111
aI19
aatp1945
Rp1946
ag104
((lp1947
(lp1948
g107
aI400
aa(lp1949
g109
aI5
aa(lp1950
g111
aI13
aatp1951
Rp1952
ag104
((lp1953
(lp1954
g107
aI400
aa(lp1955
g109
aI6
aa(lp1956
g111
aI13
aatp1957
Rp1958
ag104
((lp1959
(lp1960
g107
aI400
aa(lp1961
g109
aI2
aa(lp1962
g111
aI19
aatp1963
Rp1964
ag104
((lp1965
(lp1966
g107
aI400
aa(lp1967
g109
aI5
aa(lp1968
g111
aI13
aatp1969
Rp1970
ag104
((lp1971
(lp1972
g107
aI400
aa(lp1973
g109
aI2
aa(lp1974
g111
aI19
aatp1975
Rp1976
ag104
((lp1977
(lp1978
g107
aI400
aa(lp1979
g109
aI1
aa(lp1980
g111
aI5
aatp1981
Rp1982
ag104
((lp1983
(lp1984
g107
aI400
aa(lp1985
g109
aI2
aa(lp1986
g111
aI19
aatp1987
Rp1988
ag104
((lp1989
(lp1990
g107
aI400
aa(lp1991
g109
aI2
aa(lp1992
g111
aI19
aatp1993
Rp1994
ag104
((lp1995
(lp1996
g107
aI400
aa(lp1997
g109
aI2
aa(lp1998
g111
aI19
aatp1999
Rp2000
ag104
((lp2001
(lp2002
g107
aI400
aa(lp2003
g109
aI1
aa(lp2004
g111
aI12
aatp2005
Rp2006
ag104
((lp2007
(lp2008
g107
aI400
aa(lp2009
g109
aI1
aa(lp2010
g111
aI12
aatp2011
Rp2012
ag104
((lp2013
(lp2014
g107
aI400
aa(lp2015
g109
aI2
aa(lp2016
g111
aI19
aatp2017
Rp2018
ag104
((lp2019
(lp2020
g107
aI400
aa(lp2021
g109
aI1
aa(lp2022
g111
aI5
aatp2023
Rp2024
ag104
((lp2025
(lp2026
g107
aI400
aa(lp2027
g109
aI4
aa(lp2028
g111
aI16
aatp2029
Rp2030
ag104
((lp2031
(lp2032
g107
aI400
aa(lp2033
g109
aI2
aa(lp2034
g111
aI19
aatp2035
Rp2036
ag104
((lp2037
(lp2038
g107
aI400
aa(lp2039
g109
aI1
aa(lp2040
g111
aI12
aatp2041
Rp2042
ag104
((lp2043
(lp2044
g107
aI400
aa(lp2045
g109
aI1
aa(lp2046
g111
aI14
aatp2047
Rp2048
ag104
((lp2049
(lp2050
g107
aI400
aa(lp2051
g109
aI5
aa(lp2052
g111
aI13
aatp2053
Rp2054
ag104
((lp2055
(lp2056
g107
aI400
aa(lp2057
g109
aI1
aa(lp2058
g111
aI12
aatp2059
Rp2060
ag104
((lp2061
(lp2062
g107
aI400
aa(lp2063
g109
aI2
aa(lp2064
g111
aI19
aatp2065
Rp2066
ag104
((lp2067
(lp2068
g107
aI400
aa(lp2069
g109
aI2
aa(lp2070
g111
aI19
aatp2071
Rp2072
ag104
((lp2073
(lp2074
g107
aI400
aa(lp2075
g109
aI1
aa(lp2076
g111
aI5
aatp2077
Rp2078
ag104
((lp2079
(lp2080
g107
aI400
aa(lp2081
g109
aI2
aa(lp2082
g111
aI19
aatp2083
Rp2084
ag104
((lp2085
(lp2086
g107
aI400
aa(lp2087
g109
aI2
aa(lp2088
g111
aI19
aatp2089
Rp2090
ag104
((lp2091
(lp2092
g107
aI400
aa(lp2093
g109
aI6
aa(lp2094
g111
aI13
aatp2095
Rp2096
ag104
((lp2097
(lp2098
g107
aI400
aa(lp2099
g109
aI1
aa(lp2100
g111
aI5
aatp2101
Rp2102
ag104
((lp2103
(lp2104
g107
aI400
aa(lp2105
g109
aI2
aa(lp2106
g111
aI19
aatp2107
Rp2108
ag104
((lp2109
(lp2110
g107
aI400
aa(lp2111
g109
aI1
aa(lp2112
g111
aI5
aatp2113
Rp2114
aaF180.42361092567444
asg288
(lp2115
(lp2116
F0.04
aF0.02
aF0.4
aF0.02
aF0.4
aF0.04
aF0.03
aF0.03
aF0.4
aF0.04
aF0.04
aF0.4
aF0.02
aF0.02
aF0.04
aF0.02
aF0.04
aF0.02
aF0.02
aF0.02
aF0.05
aF0.4
aF0.04
aF0.4
aF0.03
aF0.02
aF0.02
aF0.03
aF0.4
aF0.04
aa(lp2117
g104
((lp2118
(lp2119
g107
aI400
aa(lp2120
g109
aI2
aa(lp2121
g111
aI18
aatp2122
Rp2123
ag104
((lp2124
(lp2125
g107
aI50
aa(lp2126
g109
aI6
aa(lp2127
g111
aI12
aatp2128
Rp2129
ag104
((lp2130
(lp2131
g107
aI50
aa(lp2132
g109
aI3
aa(lp2133
g111
aI5
aatp2134
Rp2135
ag104
((lp2136
(lp2137
g107
aI50
aa(lp2138
g109
aI2
aa(lp2139
g111
aI14
aatp2140
Rp2141
ag104
((lp2142
(lp2143
g107
aI50
aa(lp2144
g109
aI3
aa(lp2145
g111
aI5
aatp2146
Rp2147
ag104
((lp2148
(lp2149
g107
aI200
aa(lp2150
g109
aI6
aa(lp2151
g111
aI9
aatp2152
Rp2153
ag104
((lp2154
(lp2155
g107
aI100
aa(lp2156
g109
aI4
aa(lp2157
g111
aI17
aatp2158
Rp2159
ag104
((lp2160
(lp2161
g107
aI50
aa(lp2162
g109
aI6
aa(lp2163
g111
aI14
aatp2164
Rp2165
ag104
((lp2166
(lp2167
g107
aI50
aa(lp2168
g109
aI4
aa(lp2169
g111
aI10
aatp2170
Rp2171
ag104
((lp2172
(lp2173
g107
aI400
aa(lp2174
g109
aI2
aa(lp2175
g111
aI15
aatp2176
Rp2177
ag104
((lp2178
(lp2179
g107
aI200
aa(lp2180
g109
aI6
aa(lp2181
g111
aI17
aatp2182
Rp2183
ag104
((lp2184
(lp2185
g107
aI50
aa(lp2186
g109
aI4
aa(lp2187
g111
aI11
aatp2188
Rp2189
ag104
((lp2190
(lp2191
g107
aI50
aa(lp2192
g109
aI3
aa(lp2193
g111
aI5
aatp2194
Rp2195
ag104
((lp2196
(lp2197
g107
aI100
aa(lp2198
g109
aI2
aa(lp2199
g111
aI19
aatp2200
Rp2201
ag104
((lp2202
(lp2203
g107
aI200
aa(lp2204
g109
aI5
aa(lp2205
g111
aI6
aatp2206
Rp2207
ag104
((lp2208
(lp2209
g107
aI100
aa(lp2210
g109
aI3
aa(lp2211
g111
aI12
aatp2212
Rp2213
ag104
((lp2214
(lp2215
g107
aI400
aa(lp2216
g109
aI1
aa(lp2217
g111
aI14
aatp2218
Rp2219
ag104
((lp2220
(lp2221
g107
aI50
aa(lp2222
g109
aI4
aa(lp2223
g111
aI16
aatp2224
Rp2225
ag104
((lp2226
(lp2227
g107
aI50
aa(lp2228
g109
aI2
aa(lp2229
g111
aI7
aatp2230
Rp2231
ag104
((lp2232
(lp2233
g107
aI50
aa(lp2234
g109
aI3
aa(lp2235
g111
aI13
aatp2236
Rp2237
ag104
((lp2238
(lp2239
g107
aI400
aa(lp2240
g109
aI6
aa(lp2241
g111
aI12
aatp2242
Rp2243
ag104
((lp2244
(lp2245
g107
aI50
aa(lp2246
g109
aI6
aa(lp2247
g111
aI12
aatp2248
Rp2249
ag104
((lp2250
(lp2251
g107
aI400
aa(lp2252
g109
aI6
aa(lp2253
g111
aI12
aatp2254
Rp2255
ag104
((lp2256
(lp2257
g107
aI50
aa(lp2258
g109
aI3
aa(lp2259
g111
aI5
aatp2260
Rp2261
ag104
((lp2262
(lp2263
g107
aI100
aa(lp2264
g109
aI1
aa(lp2265
g111
aI17
aatp2266
Rp2267
ag104
((lp2268
(lp2269
g107
aI50
aa(lp2270
g109
aI6
aa(lp2271
g111
aI17
aatp2272
Rp2273
ag104
((lp2274
(lp2275
g107
aI50
aa(lp2276
g109
aI1
aa(lp2277
g111
aI15
aatp2278
Rp2279
ag104
((lp2280
(lp2281
g107
aI100
aa(lp2282
g109
aI5
aa(lp2283
g111
aI17
aatp2284
Rp2285
ag104
((lp2286
(lp2287
g107
aI50
aa(lp2288
g109
aI6
aa(lp2289
g111
aI17
aatp2290
Rp2291
ag104
((lp2292
(lp2293
g107
aI400
aa(lp2294
g109
aI1
aa(lp2295
g111
aI5
aatp2296
Rp2297
aaF206.87313294410706
assS'DT'
p2298
(dp2299
g3
(lp2300
(lp2301
g6
(g10
S'\x00\x00\x00\x00\x00\x00\xd0?'
p2302
tp2303
Rp2304
ag6
(g10
S'\x1f\x85\xebQ\xb8\x1e\xd5?'
p2305
tp2306
Rp2307
ag6
(g10
S'\xcd\xcc\xcc\xcc\xcc\xcc\xdc?'
p2308
tp2309
Rp2310
ag6
(g10
S'\x1f\x85\xebQ\xb8\x1e\xd5?'
p2311
tp2312
Rp2313
ag6
(g10
S'\x85\xebQ\xb8\x1e\x85\xdb?'
p2314
tp2315
Rp2316
ag6
(g10
S'333333\xc3?'
p2317
tp2318
Rp2319
ag6
(g10
S'333333\xc3?'
p2320
tp2321
Rp2322
ag6
(g10
S'\xc3\xf5(\\\x8f\xc2\xc5?'
p2323
tp2324
Rp2325
ag6
(g10
S'ffffff\xd6?'
p2326
tp2327
Rp2328
ag6
(g10
S'\xecQ\xb8\x1e\x85\xeb\xc1?'
p2329
tp2330
Rp2331
ag6
(g10
S'\xecQ\xb8\x1e\x85\xeb\xd1?'
p2332
tp2333
Rp2334
ag6
(g10
S'\xa4p=\n\xd7\xa3\xc0?'
p2335
tp2336
Rp2337
ag6
(g10
S'\xf6(\\\x8f\xc2\xf5\xd8?'
p2338
tp2339
Rp2340
ag6
(g10
S')\\\x8f\xc2\xf5(\xdc?'
p2341
tp2342
Rp2343
ag6
(g10
S'\xc3\xf5(\\\x8f\xc2\xd5?'
p2344
tp2345
Rp2346
ag6
(g10
S'\x85\xebQ\xb8\x1e\x85\xdb?'
p2347
tp2348
Rp2349
ag6
(g10
S'\xecQ\xb8\x1e\x85\xeb\xc1?'
p2350
tp2351
Rp2352
ag6
(g10
S'\n\xd7\xa3p=\n\xd7?'
p2353
tp2354
Rp2355
ag6
(g10
S'{\x14\xaeG\xe1z\xd4?'
p2356
tp2357
Rp2358
ag6
(g10
S'\n\xd7\xa3p=\n\xc7?'
p2359
tp2360
Rp2361
ag6
(g10
S'q=\n\xd7\xa3p\xcd?'
p2362
tp2363
Rp2364
ag6
(g10
S'\xc3\xf5(\\\x8f\xc2\xc5?'
p2365
tp2366
Rp2367
ag6
(g10
S'\xd7\xa3p=\n\xd7\xd3?'
p2368
tp2369
Rp2370
ag6
(g10
S'{\x14\xaeG\xe1z\xc4?'
p2371
tp2372
Rp2373
ag6
(g10
S'\xecQ\xb8\x1e\x85\xeb\xc1?'
p2374
tp2375
Rp2376
ag6
(g10
S'ffffff\xd6?'
p2377
tp2378
Rp2379
ag6
(g10
S'\x1f\x85\xebQ\xb8\x1e\xd5?'
p2380
tp2381
Rp2382
ag6
(g10
S'R\xb8\x1e\x85\xebQ\xc8?'
p2383
tp2384
Rp2385
ag6
(g10
S'\x1f\x85\xebQ\xb8\x1e\xd5?'
p2386
tp2387
Rp2388
ag6
(g10
S'ffffff\xd6?'
p2389
tp2390
Rp2391
aa(lp2392
g104
((lp2393
(lp2394
g107
aI400
aa(lp2395
g109
aI1
aa(lp2396
g111
aI12
aatp2397
Rp2398
ag104
((lp2399
(lp2400
g107
aI400
aa(lp2401
g109
aI1
aa(lp2402
g111
aI5
aatp2403
Rp2404
ag104
((lp2405
(lp2406
g107
aI400
aa(lp2407
g109
aI2
aa(lp2408
g111
aI19
aatp2409
Rp2410
ag104
((lp2411
(lp2412
g107
aI400
aa(lp2413
g109
aI1
aa(lp2414
g111
aI14
aatp2415
Rp2416
ag104
((lp2417
(lp2418
g107
aI400
aa(lp2419
g109
aI2
aa(lp2420
g111
aI19
aatp2421
Rp2422
ag104
((lp2423
(lp2424
g107
aI400
aa(lp2425
g109
aI5
aa(lp2426
g111
aI13
aatp2427
Rp2428
ag104
((lp2429
(lp2430
g107
aI400
aa(lp2431
g109
aI2
aa(lp2432
g111
aI19
aatp2433
Rp2434
ag104
((lp2435
(lp2436
g107
aI400
aa(lp2437
g109
aI1
aa(lp2438
g111
aI14
aatp2439
Rp2440
ag104
((lp2441
(lp2442
g107
aI200
aa(lp2443
g109
aI6
aa(lp2444
g111
aI11
aatp2445
Rp2446
ag104
((lp2447
(lp2448
g107
aI400
aa(lp2449
g109
aI1
aa(lp2450
g111
aI5
aatp2451
Rp2452
ag104
((lp2453
(lp2454
g107
aI200
aa(lp2455
g109
aI3
aa(lp2456
g111
aI5
aatp2457
Rp2458
ag104
((lp2459
(lp2460
g107
aI400
aa(lp2461
g109
aI1
aa(lp2462
g111
aI5
aatp2463
Rp2464
ag104
((lp2465
(lp2466
g107
aI200
aa(lp2467
g109
aI2
aa(lp2468
g111
aI21
aatp2469
Rp2470
ag104
((lp2471
(lp2472
g107
aI400
aa(lp2473
g109
aI5
aa(lp2474
g111
aI13
aatp2475
Rp2476
ag104
((lp2477
(lp2478
g107
aI400
aa(lp2479
g109
aI6
aa(lp2480
g111
aI13
aatp2481
Rp2482
ag104
((lp2483
(lp2484
g107
aI400
aa(lp2485
g109
aI1
aa(lp2486
g111
aI5
aatp2487
Rp2488
ag104
((lp2489
(lp2490
g107
aI400
aa(lp2491
g109
aI4
aa(lp2492
g111
aI7
aatp2493
Rp2494
ag104
((lp2495
(lp2496
g107
aI400
aa(lp2497
g109
aI2
aa(lp2498
g111
aI19
aatp2499
Rp2500
ag104
((lp2501
(lp2502
g107
aI400
aa(lp2503
g109
aI6
aa(lp2504
g111
aI12
aatp2505
Rp2506
ag104
((lp2507
(lp2508
g107
aI400
aa(lp2509
g109
aI1
aa(lp2510
g111
aI5
aatp2511
Rp2512
ag104
((lp2513
(lp2514
g107
aI200
aa(lp2515
g109
aI5
aa(lp2516
g111
aI6
aatp2517
Rp2518
ag104
((lp2519
(lp2520
g107
aI400
aa(lp2521
g109
aI1
aa(lp2522
g111
aI5
aatp2523
Rp2524
ag104
((lp2525
(lp2526
g107
aI400
aa(lp2527
g109
aI2
aa(lp2528
g111
aI19
aatp2529
Rp2530
ag104
((lp2531
(lp2532
g107
aI400
aa(lp2533
g109
aI5
aa(lp2534
g111
aI13
aatp2535
Rp2536
ag104
((lp2537
(lp2538
g107
aI400
aa(lp2539
g109
aI1
aa(lp2540
g111
aI5
aatp2541
Rp2542
ag104
((lp2543
(lp2544
g107
aI400
aa(lp2545
g109
aI1
aa(lp2546
g111
aI12
aatp2547
Rp2548
ag104
((lp2549
(lp2550
g107
aI400
aa(lp2551
g109
aI1
aa(lp2552
g111
aI5
aatp2553
Rp2554
ag104
((lp2555
(lp2556
g107
aI200
aa(lp2557
g109
aI3
aa(lp2558
g111
aI5
aatp2559
Rp2560
ag104
((lp2561
(lp2562
g107
aI400
aa(lp2563
g109
aI6
aa(lp2564
g111
aI12
aatp2565
Rp2566
ag104
((lp2567
(lp2568
g107
aI400
aa(lp2569
g109
aI4
aa(lp2570
g111
aI16
aatp2571
Rp2572
aaF168.07346105575562
asg288
(lp2573
(lp2574
F0.43
aF0.4
aF0.41
aF0.43
aF0.43
aF0.41
aF0.38
aF0.08
aF0.47
aF0.02
aF0.09
aF0.44
aF0.43
aF0.43
aF0.02
aF0.08
aF0.0
aF0.06
aF0.06
aF0.02
aF0.4
aF0.46
aF0.04
aF0.39
aF0.09
aF0.09
aF0.03
aF0.42
aF0.05
aF0.06
aa(lp2575
g104
((lp2576
(lp2577
g107
aI100
aa(lp2578
g109
aI2
aa(lp2579
g111
aI20
aatp2580
Rp2581
ag104
((lp2582
(lp2583
g107
aI400
aa(lp2584
g109
aI5
aa(lp2585
g111
aI18
aatp2586
Rp2587
ag104
((lp2588
(lp2589
g107
aI50
aa(lp2590
g109
aI6
aa(lp2591
g111
aI12
aatp2592
Rp2593
ag104
((lp2594
(lp2595
g107
aI200
aa(lp2596
g109
aI3
aa(lp2597
g111
aI5
aatp2598
Rp2599
ag104
((lp2600
(lp2601
g107
aI200
aa(lp2602
g109
aI2
aa(lp2603
g111
aI21
aatp2604
Rp2605
ag104
((lp2606
(lp2607
g107
aI50
aa(lp2608
g109
aI3
aa(lp2609
g111
aI5
aatp2610
Rp2611
ag104
((lp2612
(lp2613
g107
aI200
aa(lp2614
g109
aI5
aa(lp2615
g111
aI6
aatp2616
Rp2617
ag104
((lp2618
(lp2619
g107
aI400
aa(lp2620
g109
aI1
aa(lp2621
g111
aI5
aatp2622
Rp2623
ag104
((lp2624
(lp2625
g107
aI400
aa(lp2626
g109
aI2
aa(lp2627
g111
aI19
aatp2628
Rp2629
ag104
((lp2630
(lp2631
g107
aI400
aa(lp2632
g109
aI1
aa(lp2633
g111
aI5
aatp2634
Rp2635
ag104
((lp2636
(lp2637
g107
aI400
aa(lp2638
g109
aI1
aa(lp2639
g111
aI5
aatp2640
Rp2641
ag104
((lp2642
(lp2643
g107
aI200
aa(lp2644
g109
aI5
aa(lp2645
g111
aI6
aatp2646
Rp2647
ag104
((lp2648
(lp2649
g107
aI200
aa(lp2650
g109
aI5
aa(lp2651
g111
aI13
aatp2652
Rp2653
ag104
((lp2654
(lp2655
g107
aI200
aa(lp2656
g109
aI5
aa(lp2657
g111
aI13
aatp2658
Rp2659
ag104
((lp2660
(lp2661
g107
aI400
aa(lp2662
g109
aI2
aa(lp2663
g111
aI19
aatp2664
Rp2665
ag104
((lp2666
(lp2667
g107
aI400
aa(lp2668
g109
aI2
aa(lp2669
g111
aI15
aatp2670
Rp2671
ag104
((lp2672
(lp2673
g107
aI100
aa(lp2674
g109
aI3
aa(lp2675
g111
aI15
aatp2676
Rp2677
ag104
((lp2678
(lp2679
g107
aI200
aa(lp2680
g109
aI3
aa(lp2681
g111
aI5
aatp2682
Rp2683
ag104
((lp2684
(lp2685
g107
aI200
aa(lp2686
g109
aI3
aa(lp2687
g111
aI11
aatp2688
Rp2689
ag104
((lp2690
(lp2691
g107
aI400
aa(lp2692
g109
aI1
aa(lp2693
g111
aI15
aatp2694
Rp2695
ag104
((lp2696
(lp2697
g107
aI400
aa(lp2698
g109
aI1
aa(lp2699
g111
aI5
aatp2700
Rp2701
ag104
((lp2702
(lp2703
g107
aI400
aa(lp2704
g109
aI5
aa(lp2705
g111
aI13
aatp2706
Rp2707
ag104
((lp2708
(lp2709
g107
aI400
aa(lp2710
g109
aI1
aa(lp2711
g111
aI12
aatp2712
Rp2713
ag104
((lp2714
(lp2715
g107
aI200
aa(lp2716
g109
aI3
aa(lp2717
g111
aI18
aatp2718
Rp2719
ag104
((lp2720
(lp2721
g107
aI400
aa(lp2722
g109
aI4
aa(lp2723
g111
aI12
aatp2724
Rp2725
ag104
((lp2726
(lp2727
g107
aI400
aa(lp2728
g109
aI2
aa(lp2729
g111
aI19
aatp2730
Rp2731
ag104
((lp2732
(lp2733
g107
aI400
aa(lp2734
g109
aI1
aa(lp2735
g111
aI5
aatp2736
Rp2737
ag104
((lp2738
(lp2739
g107
aI100
aa(lp2740
g109
aI4
aa(lp2741
g111
aI17
aatp2742
Rp2743
ag104
((lp2744
(lp2745
g107
aI200
aa(lp2746
g109
aI4
aa(lp2747
g111
aI10
aatp2748
Rp2749
ag104
((lp2750
(lp2751
g107
aI200
aa(lp2752
g109
aI5
aa(lp2753
g111
aI7
aatp2754
Rp2755
aaF185.14608001708984
ass.