(dp0
S'KNN'
p1
(dp2
S'd2h'
p3
(lp4
(lp5
cnumpy.core.multiarray
scalar
p6
(cnumpy
dtype
p7
(S'f8'
p8
I0
I1
tp9
Rp10
(I3
S'<'
p11
NNNI-1
I-1
I0
tp12
bS'\n\xd7\xa3p=\n\xb7?'
p13
tp14
Rp15
ag6
(g10
S'\x9a\x99\x99\x99\x99\x99\xa9?'
p16
tp17
Rp18
ag6
(g10
S'\n\xd7\xa3p=\n\xb7?'
p19
tp20
Rp21
ag6
(g10
S'{\x14\xaeG\xe1z\xb4?'
p22
tp23
Rp24
ag6
(g10
S'{\x14\xaeG\xe1z\xb4?'
p25
tp26
Rp27
ag6
(g10
S'\xa4p=\n\xd7\xa3\xc0?'
p28
tp29
Rp30
ag6
(g10
S'\x9a\x99\x99\x99\x99\x99\xb9?'
p31
tp32
Rp33
ag6
(g10
S'\xecQ\xb8\x1e\x85\xeb\xb1?'
p34
tp35
Rp36
ag6
(g10
S'\xb8\x1e\x85\xebQ\xb8\xae?'
p37
tp38
Rp39
ag6
(g10
S'\xb8\x1e\x85\xebQ\xb8\xae?'
p40
tp41
Rp42
ag6
(g10
S'\xb8\x1e\x85\xebQ\xb8\xae?'
p43
tp44
Rp45
ag6
(g10
S'\x9a\x99\x99\x99\x99\x99\xa9?'
p46
tp47
Rp48
ag6
(g10
S'\xb8\x1e\x85\xebQ\xb8\xae?'
p49
tp50
Rp51
ag6
(g10
S'\xecQ\xb8\x1e\x85\xeb\xb1?'
p52
tp53
Rp54
ag6
(g10
S'\x9a\x99\x99\x99\x99\x99\xb9?'
p55
tp56
Rp57
ag6
(g10
S'{\x14\xaeG\xe1z\xb4?'
p58
tp59
Rp60
ag6
(g10
S'\xecQ\xb8\x1e\x85\xeb\xb1?'
p61
tp62
Rp63
ag6
(g10
S'\n\xd7\xa3p=\n\xb7?'
p64
tp65
Rp66
ag6
(g10
S'\n\xd7\xa3p=\n\xb7?'
p67
tp68
Rp69
ag6
(g10
S'\xecQ\xb8\x1e\x85\xeb\xb1?'
p70
tp71
Rp72
ag6
(g10
S'\xb8\x1e\x85\xebQ\xb8\xbe?'
p73
tp74
Rp75
ag6
(g10
S'\xecQ\xb8\x1e\x85\xeb\xb1?'
p76
tp77
Rp78
ag6
(g10
S'{\x14\xaeG\xe1z\xb4?'
p79
tp80
Rp81
ag6
(g10
S'\x9a\x99\x99\x99\x99\x99\xb9?'
p82
tp83
Rp84
ag6
(g10
S'\xb8\x1e\x85\xebQ\xb8\xbe?'
p85
tp86
Rp87
ag6
(g10
S'\x9a\x99\x99\x99\x99\x99\xa9?'
p88
tp89
Rp90
ag6
(g10
S'{\x14\xaeG\xe1z\xb4?'
p91
tp92
Rp93
ag6
(g10
S'{\x14\xaeG\xe1z\xb4?'
p94
tp95
Rp96
ag6
(g10
S'\xecQ\xb8\x1e\x85\xeb\xc1?'
p97
tp98
Rp99
ag6
(g10
S'\xecQ\xb8\x1e\x85\xeb\xb1?'
p100
tp101
Rp102
aa(lp103
ccollections
OrderedDict
p104
((lp105
(lp106
S'm'
p107
aI400
aa(lp108
S'r'
p109
aI2
aa(lp110
S'k'
p111
aI19
aatp112
Rp113
ag104
((lp114
(lp115
g107
aI400
aa(lp116
g109
aI1
aa(lp117
g111
aI5
aatp118
Rp119
ag104
((lp120
(lp121
g107
aI400
aa(lp122
g109
aI1
aa(lp123
g111
aI12
aatp124
Rp125
ag104
((lp126
(lp127
g107
aI400
aa(lp128
g109
aI2
aa(lp129
g111
aI19
aatp130
Rp131
ag104
((lp132
(lp133
g107
aI400
aa(lp134
g109
aI5
aa(lp135
g111
aI13
aatp136
Rp137
ag104
((lp138
(lp139
g107
aI400
aa(lp140
g109
aI1
aa(lp141
g111
aI5
aatp142
Rp143
ag104
((lp144
(lp145
g107
aI400
aa(lp146
g109
aI1
aa(lp147
g111
aI12
aatp148
Rp149
ag104
((lp150
(lp151
g107
aI400
aa(lp152
g109
aI2
aa(lp153
g111
aI19
aatp154
Rp155
ag104
((lp156
(lp157
g107
aI400
aa(lp158
g109
aI5
aa(lp159
g111
aI13
aatp160
Rp161
ag104
((lp162
(lp163
g107
aI400
aa(lp164
g109
aI5
aa(lp165
g111
aI13
aatp166
Rp167
ag104
((lp168
(lp169
g107
aI400
aa(lp170
g109
aI5
aa(lp171
g111
aI13
aatp172
Rp173
ag104
((lp174
(lp175
g107
aI400
aa(lp176
g109
aI1
aa(lp177
g111
aI5
aatp178
Rp179
ag104
((lp180
(lp181
g107
aI400
aa(lp182
g109
aI1
aa(lp183
g111
aI5
aatp184
Rp185
ag104
((lp186
(lp187
g107
aI400
aa(lp188
g109
aI2
aa(lp189
g111
aI15
aatp190
Rp191
ag104
((lp192
(lp193
g107
aI400
aa(lp194
g109
aI1
aa(lp195
g111
aI5
aatp196
Rp197
ag104
((lp198
(lp199
g107
aI400
aa(lp200
g109
aI1
aa(lp201
g111
aI12
aatp202
Rp203
ag104
((lp204
(lp205
g107
aI400
aa(lp206
g109
aI2
aa(lp207
g111
aI19
aatp208
Rp209
ag104
((lp210
(lp211
g107
aI400
aa(lp212
g109
aI2
aa(lp213
g111
aI19
aatp214
Rp215
ag104
((lp216
(lp217
g107
aI400
aa(lp218
g109
aI6
aa(lp219
g111
aI13
aatp220
Rp221
ag104
((lp222
(lp223
g107
aI400
aa(lp224
g109
aI1
aa(lp225
g111
aI5
aatp226
Rp227
ag104
((lp228
(lp229
g107
aI400
aa(lp230
g109
aI2
aa(lp231
g111
aI19
aatp232
Rp233
ag104
((lp234
(lp235
g107
aI400
aa(lp236
g109
aI2
aa(lp237
g111
aI19
aatp238
Rp239
ag104
((lp240
(lp241
g107
aI400
aa(lp242
g109
aI4
aa(lp243
g111
aI19
aatp244
Rp245
ag104
((lp246
(lp247
g107
aI400
aa(lp248
g109
aI2
aa(lp249
g111
aI19
aatp250
Rp251
ag104
((lp252
(lp253
g107
aI400
aa(lp254
g109
aI1
aa(lp255
g111
aI5
aatp256
Rp257
ag104
((lp258
(lp259
g107
aI400
aa(lp260
g109
aI6
aa(lp261
g111
aI13
aatp262
Rp263
ag104
((lp264
(lp265
g107
aI400
aa(lp266
g109
aI1
aa(lp267
g111
aI14
aatp268
Rp269
ag104
((lp270
(lp271
g107
aI400
aa(lp272
g109
aI5
aa(lp273
g111
aI13
aatp274
Rp275
ag104
((lp276
(lp277
g107
aI400
aa(lp278
g109
aI1
aa(lp279
g111
aI14
aatp280
Rp281
ag104
((lp282
(lp283
g107
aI400
aa(lp284
g109
aI1
aa(lp285
g111
aI5
aatp286
Rp287
aaF985.6773061752319
asS'popt20'
p288
(lp289
(lp290
F0.97
aF1.0
aF0.97
aF0.97
aF0.98
aF0.92
aF1.0
aF1.0
aF0.93
aF1.0
aF1.0
aF0.95
aF0.96
aF0.95
aF1.0
aF1.0
aF1.0
aF0.96
aF1.0
aF1.0
aF0.95
aF1.0
aF1.0
aF0.95
aF1.0
aF0.97
aF0.88
aF0.98
aF1.0
aF1.0
aa(lp291
g104
((lp292
(lp293
g107
aI100
aa(lp294
g109
aI1
aa(lp295
g111
aI18
aatp296
Rp297
ag104
((lp298
(lp299
g107
aI50
aa(lp300
g109
aI3
aa(lp301
g111
aI13
aatp302
Rp303
ag104
((lp304
(lp305
g107
aI50
aa(lp306
g109
aI3
aa(lp307
g111
aI13
aatp308
Rp309
ag104
((lp310
(lp311
g107
aI50
aa(lp312
g109
aI3
aa(lp313
g111
aI13
aatp314
Rp315
ag104
((lp316
(lp317
g107
aI50
aa(lp318
g109
aI3
aa(lp319
g111
aI13
aatp320
Rp321
ag104
((lp322
(lp323
g107
aI100
aa(lp324
g109
aI2
aa(lp325
g111
aI5
aatp326
Rp327
ag104
((lp328
(lp329
g107
aI50
aa(lp330
g109
aI3
aa(lp331
g111
aI13
aatp332
Rp333
ag104
((lp334
(lp335
g107
aI50
aa(lp336
g109
aI3
aa(lp337
g111
aI13
aatp338
Rp339
ag104
((lp340
(lp341
g107
aI100
aa(lp342
g109
aI5
aa(lp343
g111
aI10
aatp344
Rp345
ag104
((lp346
(lp347
g107
aI50
aa(lp348
g109
aI6
aa(lp349
g111
aI12
aatp350
Rp351
ag104
((lp352
(lp353
g107
aI50
aa(lp354
g109
aI3
aa(lp355
g111
aI5
aatp356
Rp357
ag104
((lp358
(lp359
g107
aI100
aa(lp360
g109
aI4
aa(lp361
g111
aI21
aatp362
Rp363
ag104
((lp364
(lp365
g107
aI100
aa(lp366
g109
aI4
aa(lp367
g111
aI17
aatp368
Rp369
ag104
((lp370
(lp371
g107
aI100
aa(lp372
g109
aI5
aa(lp373
g111
aI10
aatp374
Rp375
ag104
((lp376
(lp377
g107
aI50
aa(lp378
g109
aI1
aa(lp379
g111
aI14
aatp380
Rp381
ag104
((lp382
(lp383
g107
aI50
aa(lp384
g109
aI6
aa(lp385
g111
aI17
aatp386
Rp387
ag104
((lp388
(lp389
g107
aI50
aa(lp390
g109
aI3
aa(lp391
g111
aI5
aatp392
Rp393
ag104
((lp394
(lp395
g107
aI100
aa(lp396
g109
aI3
aa(lp397
g111
aI16
aatp398
Rp399
ag104
((lp400
(lp401
g107
aI50
aa(lp402
g109
aI3
aa(lp403
g111
aI5
aatp404
Rp405
ag104
((lp406
(lp407
g107
aI50
aa(lp408
g109
aI3
aa(lp409
g111
aI5
aatp410
Rp411
ag104
((lp412
(lp413
g107
aI100
aa(lp414
g109
aI1
aa(lp415
g111
aI18
aatp416
Rp417
ag104
((lp418
(lp419
g107
aI50
aa(lp420
g109
aI3
aa(lp421
g111
aI13
aatp422
Rp423
ag104
((lp424
(lp425
g107
aI50
aa(lp426
g109
aI4
aa(lp427
g111
aI10
aatp428
Rp429
ag104
((lp430
(lp431
g107
aI100
aa(lp432
g109
aI5
aa(lp433
g111
aI10
aatp434
Rp435
ag104
((lp436
(lp437
g107
aI50
aa(lp438
g109
aI3
aa(lp439
g111
aI13
aatp440
Rp441
ag104
((lp442
(lp443
g107
aI100
aa(lp444
g109
aI3
aa(lp445
g111
aI12
aatp446
Rp447
ag104
((lp448
(lp449
g107
aI100
aa(lp450
g109
aI2
aa(lp451
g111
aI9
aatp452
Rp453
ag104
((lp454
(lp455
g107
aI50
aa(lp456
g109
aI3
aa(lp457
g111
aI13
aatp458
Rp459
ag104
((lp460
(lp461
g107
aI50
aa(lp462
g109
aI6
aa(lp463
g111
aI14
aatp464
Rp465
ag104
((lp466
(lp467
g107
aI50
aa(lp468
g109
aI3
aa(lp469
g111
aI5
aatp470
Rp471
aaF1100.8289399147034
assS'SVM'
p472
(dp473
g3
(lp474
(lp475
g6
(g10
S'q=\n\xd7\xa3p\xe5?'
p476
tp477
Rp478
ag6
(g10
S'\xecQ\xb8\x1e\x85\xeb\xc1?'
p479
tp480
Rp481
ag6
(g10
S'\xecQ\xb8\x1e\x85\xeb\xc1?'
p482
tp483
Rp484
ag6
(g10
S'\xaeG\xe1z\x14\xae\xe7?'
p485
tp486
Rp487
ag6
(g10
S'333333\xc3?'
p488
tp489
Rp490
ag6
(g10
S'ffffff\xee?'
p491
tp492
Rp493
ag6
(g10
S'\xc3\xf5(\\\x8f\xc2\xed?'
p494
tp495
Rp496
ag6
(g10
S'\xa4p=\n\xd7\xa3\xc0?'
p497
tp498
Rp499
ag6
(g10
S'\n\xd7\xa3p=\n\xb7?'
p500
tp501
Rp502
ag6
(g10
S'{\x14\xaeG\xe1z\xc4?'
p503
tp504
Rp505
ag6
(g10
S'\xa4p=\n\xd7\xa3\xd0?'
p506
tp507
Rp508
ag6
(g10
S'H\xe1z\x14\xaeG\xd1?'
p509
tp510
Rp511
ag6
(g10
S'333333\xc3?'
p512
tp513
Rp514
ag6
(g10
S'333333\xc3?'
p515
tp516
Rp517
aF1.0
ag6
(g10
S'\x8f\xc2\xf5(\\\x8f\xd2?'
p518
tp519
Rp520
ag6
(g10
S'\xe1z\x14\xaeG\xe1\xca?'
p521
tp522
Rp523
ag6
(g10
S'\x8f\xc2\xf5(\\\x8f\xea?'
p524
tp525
Rp526
ag6
(g10
S'R\xb8\x1e\x85\xebQ\xe0?'
p527
tp528
Rp529
ag6
(g10
S'\n\xd7\xa3p=\n\xd7?'
p530
tp531
Rp532
ag6
(g10
S'{\x14\xaeG\xe1z\xb4?'
p533
tp534
Rp535
ag6
(g10
S'333333\xc3?'
p536
tp537
Rp538
ag6
(g10
S')\\\x8f\xc2\xf5(\xbc?'
p539
tp540
Rp541
ag6
(g10
S'ffffff\xee?'
p542
tp543
Rp544
ag6
(g10
S'\x9a\x99\x99\x99\x99\x99\xd9?'
p545
tp546
Rp547
ag6
(g10
S'q=\n\xd7\xa3p\xcd?'
p548
tp549
Rp550
ag6
(g10
S'H\xe1z\x14\xaeG\xd1?'
p551
tp552
Rp553
ag6
(g10
S'\xa4p=\n\xd7\xa3\xc0?'
p554
tp555
Rp556
aF1.0
ag6
(g10
S'\n\xd7\xa3p=\n\xb7?'
p557
tp558
Rp559
aa(lp560
g104
((lp561
(lp562
g107
aI400
aa(lp563
g109
aI1
aa(lp564
g111
aI5
aatp565
Rp566
ag104
((lp567
(lp568
g107
aI400
aa(lp569
g109
aI1
aa(lp570
g111
aI5
aatp571
Rp572
ag104
((lp573
(lp574
g107
aI400
aa(lp575
g109
aI5
aa(lp576
g111
aI13
aatp577
Rp578
ag104
((lp579
(lp580
g107
aI400
aa(lp581
g109
aI1
aa(lp582
g111
aI5
aatp583
Rp584
ag104
((lp585
(lp586
g107
aI400
aa(lp587
g109
aI2
aa(lp588
g111
aI5
aatp589
Rp590
ag104
((lp591
(lp592
g107
aI400
aa(lp593
g109
aI2
aa(lp594
g111
aI19
aatp595
Rp596
ag104
((lp597
(lp598
g107
aI400
aa(lp599
g109
aI1
aa(lp600
g111
aI12
aatp601
Rp602
ag104
((lp603
(lp604
g107
aI400
aa(lp605
g109
aI1
aa(lp606
g111
aI5
aatp607
Rp608
ag104
((lp609
(lp610
g107
aI400
aa(lp611
g109
aI1
aa(lp612
g111
aI12
aatp613
Rp614
ag104
((lp615
(lp616
g107
aI400
aa(lp617
g109
aI2
aa(lp618
g111
aI19
aatp619
Rp620
ag104
((lp621
(lp622
g107
aI400
aa(lp623
g109
aI2
aa(lp624
g111
aI19
aatp625
Rp626
ag104
((lp627
(lp628
g107
aI400
aa(lp629
g109
aI1
aa(lp630
g111
aI5
aatp631
Rp632
ag104
((lp633
(lp634
g107
aI400
aa(lp635
g109
aI6
aa(lp636
g111
aI12
aatp637
Rp638
ag104
((lp639
(lp640
g107
aI400
aa(lp641
g109
aI1
aa(lp642
g111
aI12
aatp643
Rp644
ag104
((lp645
(lp646
g107
aI400
aa(lp647
g109
aI4
aa(lp648
g111
aI19
aatp649
Rp650
ag104
((lp651
(lp652
g107
aI400
aa(lp653
g109
aI1
aa(lp654
g111
aI5
aatp655
Rp656
ag104
((lp657
(lp658
g107
aI400
aa(lp659
g109
aI1
aa(lp660
g111
aI12
aatp661
Rp662
ag104
((lp663
(lp664
g107
aI400
aa(lp665
g109
aI1
aa(lp666
g111
aI5
aatp667
Rp668
ag104
((lp669
(lp670
g107
aI400
aa(lp671
g109
aI1
aa(lp672
g111
aI5
aatp673
Rp674
ag104
((lp675
(lp676
g107
aI400
aa(lp677
g109
aI4
aa(lp678
g111
aI12
aatp679
Rp680
ag104
((lp681
(lp682
g107
aI400
aa(lp683
g109
aI2
aa(lp684
g111
aI15
aatp685
Rp686
ag104
((lp687
(lp688
g107
aI400
aa(lp689
g109
aI1
aa(lp690
g111
aI12
aatp691
Rp692
ag104
((lp693
(lp694
g107
aI400
aa(lp695
g109
aI2
aa(lp696
g111
aI19
aatp697
Rp698
ag104
((lp699
(lp700
g107
aI400
aa(lp701
g109
aI1
aa(lp702
g111
aI12
aatp703
Rp704
ag104
((lp705
(lp706
g107
aI400
aa(lp707
g109
aI2
aa(lp708
g111
aI19
aatp709
Rp710
ag104
((lp711
(lp712
g107
aI400
aa(lp713
g109
aI1
aa(lp714
g111
aI12
aatp715
Rp716
ag104
((lp717
(lp718
g107
aI400
aa(lp719
g109
aI1
aa(lp720
g111
aI5
aatp721
Rp722
ag104
((lp723
(lp724
g107
aI400
aa(lp725
g109
aI2
aa(lp726
g111
aI15
aatp727
Rp728
ag104
((lp729
(lp730
g107
aI200
aa(lp731
g109
aI6
aa(lp732
g111
aI19
aatp733
Rp734
ag104
((lp735
(lp736
g107
aI400
aa(lp737
g109
aI6
aa(lp738
g111
aI13
aatp739
Rp740
aaF989.1969468593597
asg288
(lp741
(lp742
F0.95
aF0.79
aF0.97
aF0.85
aF0.97
aF0.99
aF0.98
aF1.0
aF1.0
aF0.82
aF0.9
aF0.95
aF0.93
aF0.99
aF1.0
aF0.96
aF1.0
aF1.0
aF0.98
aF0.99
aF0.98
aF1.0
aF0.98
aF0.98
aF0.99
aF0.94
aF0.94
aF0.95
aF0.97
aF0.98
aa(lp743
g104
((lp744
(lp745
g107
aI200
aa(lp746
g109
aI4
aa(lp747
g111
aI9
aatp748
Rp749
ag104
((lp750
(lp751
g107
aI50
aa(lp752
g109
aI3
aa(lp753
g111
aI5
aatp754
Rp755
ag104
((lp756
(lp757
g107
aI50
aa(lp758
g109
aI3
aa(lp759
g111
aI13
aatp760
Rp761
ag104
((lp762
(lp763
g107
aI200
aa(lp764
g109
aI3
aa(lp765
g111
aI5
aatp766
Rp767
ag104
((lp768
(lp769
g107
aI100
aa(lp770
g109
aI1
aa(lp771
g111
aI18
aatp772
Rp773
ag104
((lp774
(lp775
g107
aI50
aa(lp776
g109
aI5
aa(lp777
g111
aI11
aatp778
Rp779
ag104
((lp780
(lp781
g107
aI200
aa(lp782
g109
aI6
aa(lp783
g111
aI11
aatp784
Rp785
ag104
((lp786
(lp787
g107
aI50
aa(lp788
g109
aI3
aa(lp789
g111
aI13
aatp790
Rp791
ag104
((lp792
(lp793
g107
aI50
aa(lp794
g109
aI3
aa(lp795
g111
aI13
aatp796
Rp797
ag104
((lp798
(lp799
g107
aI200
aa(lp800
g109
aI4
aa(lp801
g111
aI9
aatp802
Rp803
ag104
((lp804
(lp805
g107
aI200
aa(lp806
g109
aI2
aa(lp807
g111
aI12
aatp808
Rp809
ag104
((lp810
(lp811
g107
aI100
aa(lp812
g109
aI5
aa(lp813
g111
aI8
aatp814
Rp815
ag104
((lp816
(lp817
g107
aI50
aa(lp818
g109
aI2
aa(lp819
g111
aI13
aatp820
Rp821
ag104
((lp822
(lp823
g107
aI50
aa(lp824
g109
aI6
aa(lp825
g111
aI17
aatp826
Rp827
ag104
((lp828
(lp829
g107
aI50
aa(lp830
g109
aI6
aa(lp831
g111
aI12
aatp832
Rp833
ag104
((lp834
(lp835
g107
aI100
aa(lp836
g109
aI2
aa(lp837
g111
aI5
aatp838
Rp839
ag104
((lp840
(lp841
g107
aI50
aa(lp842
g109
aI2
aa(lp843
g111
aI14
aatp844
Rp845
ag104
((lp846
(lp847
g107
aI50
aa(lp848
g109
aI3
aa(lp849
g111
aI21
aatp850
Rp851
ag104
((lp852
(lp853
g107
aI50
aa(lp854
g109
aI1
aa(lp855
g111
aI15
aatp856
Rp857
ag104
((lp858
(lp859
g107
aI50
aa(lp860
g109
aI2
aa(lp861
g111
aI13
aatp862
Rp863
ag104
((lp864
(lp865
g107
aI50
aa(lp866
g109
aI3
aa(lp867
g111
aI13
aatp868
Rp869
ag104
((lp870
(lp871
g107
aI50
aa(lp872
g109
aI6
aa(lp873
g111
aI12
aatp874
Rp875
ag104
((lp876
(lp877
g107
aI50
aa(lp878
g109
aI6
aa(lp879
g111
aI12
aatp880
Rp881
ag104
((lp882
(lp883
g107
aI100
aa(lp884
g109
aI4
aa(lp885
g111
aI17
aatp886
Rp887
ag104
((lp888
(lp889
g107
aI50
aa(lp890
g109
aI3
aa(lp891
g111
aI5
aatp892
Rp893
ag104
((lp894
(lp895
g107
aI100
aa(lp896
g109
aI2
aa(lp897
g111
aI5
aatp898
Rp899
ag104
((lp900
(lp901
g107
aI50
aa(lp902
g109
aI3
aa(lp903
g111
aI13
aatp904
Rp905
ag104
((lp906
(lp907
g107
aI100
aa(lp908
g109
aI3
aa(lp909
g111
aI12
aatp910
Rp911
ag104
((lp912
(lp913
g107
aI100
aa(lp914
g109
aI6
aa(lp915
g111
aI14
aatp916
Rp917
ag104
((lp918
(lp919
g107
aI50
aa(lp920
g109
aI1
aa(lp921
g111
aI14
aatp922
Rp923
aaF1063.3749990463257
assS'NB'
p924
(dp925
g3
(lp926
(lp927
g6
(g10
S'\xf6(\\\x8f\xc2\xf5\xd8?'
p928
tp929
Rp930
ag6
(g10
S'\x9a\x99\x99\x99\x99\x99\xd9?'
p931
tp932
Rp933
ag6
(g10
S'R\xb8\x1e\x85\xebQ\xd8?'
p934
tp935
Rp936
ag6
(g10
S'R\xb8\x1e\x85\xebQ\xd8?'
p937
tp938
Rp939
ag6
(g10
S'q=\n\xd7\xa3p\xdd?'
p940
tp941
Rp942
ag6
(g10
S')\\\x8f\xc2\xf5(\xdc?'
p943
tp944
Rp945
ag6
(g10
S'R\xb8\x1e\x85\xebQ\xd8?'
p946
tp947
Rp948
ag6
(g10
S'=\n\xd7\xa3p=\xda?'
p949
tp950
Rp951
ag6
(g10
S'\x85\xebQ\xb8\x1e\x85\xdb?'
p952
tp953
Rp954
ag6
(g10
S')\\\x8f\xc2\xf5(\xdc?'
p955
tp956
Rp957
ag6
(g10
S'\xc3\xf5(\\\x8f\xc2\xd5?'
p958
tp959
Rp960
ag6
(g10
S'\x00\x00\x00\x00\x00\x00\xd0?'
p961
tp962
Rp963
ag6
(g10
S'\\\x8f\xc2\xf5(\\\xdf?'
p964
tp965
Rp966
ag6
(g10
S'\n\xd7\xa3p=\n\xd7?'
p967
tp968
Rp969
ag6
(g10
S'\xaeG\xe1z\x14\xae\xd7?'
p970
tp971
Rp972
ag6
(g10
S'\x14\xaeG\xe1z\x14\xde?'
p973
tp974
Rp975
ag6
(g10
S'=\n\xd7\xa3p=\xda?'
p976
tp977
Rp978
ag6
(g10
S'q=\n\xd7\xa3p\xdd?'
p979
tp980
Rp981
ag6
(g10
S'\x9a\x99\x99\x99\x99\x99\xd9?'
p982
tp983
Rp984
ag6
(g10
S'\\\x8f\xc2\xf5(\\\xdf?'
p985
tp986
Rp987
ag6
(g10
S'R\xb8\x1e\x85\xebQ\xe0?'
p988
tp989
Rp990
ag6
(g10
S'R\xb8\x1e\x85\xebQ\xd8?'
p991
tp992
Rp993
ag6
(g10
S'\x9a\x99\x99\x99\x99\x99\xd9?'
p994
tp995
Rp996
ag6
(g10
S'ffffff\xd6?'
p997
tp998
Rp999
ag6
(g10
S'\xa4p=\n\xd7\xa3\xe0?'
p1000
tp1001
Rp1002
ag6
(g10
S'R\xb8\x1e\x85\xebQ\xd8?'
p1003
tp1004
Rp1005
ag6
(g10
S'\xb8\x1e\x85\xebQ\xb8\xce?'
p1006
tp1007
Rp1008
ag6
(g10
S'ffffff\xd6?'
p1009
tp1010
Rp1011
ag6
(g10
S'q=\n\xd7\xa3p\xdd?'
p1012
tp1013
Rp1014
ag6
(g10
S')\\\x8f\xc2\xf5(\xdc?'
p1015
tp1016
Rp1017
aa(lp1018
g104
((lp1019
(lp1020
g107
aI50
aa(lp1021
g109
aI6
aa(lp1022
g111
aI12
aatp1023
Rp1024
ag104
((lp1025
(lp1026
g107
aI50
aa(lp1027
g109
aI3
aa(lp1028
g111
aI13
aatp1029
Rp1030
ag104
((lp1031
(lp1032
g107
aI50
aa(lp1033
g109
aI6
aa(lp1034
g111
aI12
aatp1035
Rp1036
ag104
((lp1037
(lp1038
g107
aI50
aa(lp1039
g109
aI3
aa(lp1040
g111
aI13
aatp1041
Rp1042
ag104
((lp1043
(lp1044
g107
aI50
aa(lp1045
g109
aI6
aa(lp1046
g111
aI17
aatp1047
Rp1048
ag104
((lp1049
(lp1050
g107
aI50
aa(lp1051
g109
aI3
aa(lp1052
g111
aI5
aatp1053
Rp1054
ag104
((lp1055
(lp1056
g107
aI50
aa(lp1057
g109
aI3
aa(lp1058
g111
aI5
aatp1059
Rp1060
ag104
((lp1061
(lp1062
g107
aI50
aa(lp1063
g109
aI1
aa(lp1064
g111
aI14
aatp1065
Rp1066
ag104
((lp1067
(lp1068
g107
aI50
aa(lp1069
g109
aI5
aa(lp1070
g111
aI18
aatp1071
Rp1072
ag104
((lp1073
(lp1074
g107
aI50
aa(lp1075
g109
aI6
aa(lp1076
g111
aI17
aatp1077
Rp1078
ag104
((lp1079
(lp1080
g107
aI50
aa(lp1081
g109
aI3
aa(lp1082
g111
aI20
aatp1083
Rp1084
ag104
((lp1085
(lp1086
g107
aI50
aa(lp1087
g109
aI3
aa(lp1088
g111
aI13
aatp1089
Rp1090
ag104
((lp1091
(lp1092
g107
aI50
aa(lp1093
g109
aI3
aa(lp1094
g111
aI13
aatp1095
Rp1096
ag104
((lp1097
(lp1098
g107
aI50
aa(lp1099
g109
aI3
aa(lp1100
g111
aI5
aatp1101
Rp1102
ag104
((lp1103
(lp1104
g107
aI50
aa(lp1105
g109
aI1
aa(lp1106
g111
aI7
aatp1107
Rp1108
ag104
((lp1109
(lp1110
g107
aI50
aa(lp1111
g109
aI6
aa(lp1112
g111
aI17
aatp1113
Rp1114
ag104
((lp1115
(lp1116
g107
aI50
aa(lp1117
g109
aI6
aa(lp1118
g111
aI12
aatp1119
Rp1120
ag104
((lp1121
(lp1122
g107
aI50
aa(lp1123
g109
aI3
aa(lp1124
g111
aI13
aatp1125
Rp1126
ag104
((lp1127
(lp1128
g107
aI50
aa(lp1129
g109
aI6
aa(lp1130
g111
aI12
aatp1131
Rp1132
ag104
((lp1133
(lp1134
g107
aI50
aa(lp1135
g109
aI3
aa(lp1136
g111
aI6
aatp1137
Rp1138
ag104
((lp1139
(lp1140
g107
aI50
aa(lp1141
g109
aI5
aa(lp1142
g111
aI11
aatp1143
Rp1144
ag104
((lp1145
(lp1146
g107
aI50
aa(lp1147
g109
aI6
aa(lp1148
g111
aI12
aatp1149
Rp1150
ag104
((lp1151
(lp1152
g107
aI50
aa(lp1153
g109
aI5
aa(lp1154
g111
aI20
aatp1155
Rp1156
ag104
((lp1157
(lp1158
g107
aI50
aa(lp1159
g109
aI3
aa(lp1160
g111
aI20
aatp1161
Rp1162
ag104
((lp1163
(lp1164
g107
aI100
aa(lp1165
g109
aI5
aa(lp1166
g111
aI8
aatp1167
Rp1168
ag104
((lp1169
(lp1170
g107
aI50
aa(lp1171
g109
aI3
aa(lp1172
g111
aI13
aatp1173
Rp1174
ag104
((lp1175
(lp1176
g107
aI50
aa(lp1177
g109
aI2
aa(lp1178
g111
aI14
aatp1179
Rp1180
ag104
((lp1181
(lp1182
g107
aI50
aa(lp1183
g109
aI4
aa(lp1184
g111
aI11
aatp1185
Rp1186
ag104
((lp1187
(lp1188
g107
aI50
aa(lp1189
g109
aI6
aa(lp1190
g111
aI12
aatp1191
Rp1192
ag104
((lp1193
(lp1194
g107
aI50
aa(lp1195
g109
aI1
aa(lp1196
g111
aI14
aatp1197
Rp1198
aaF824.5571100711823
asg288
(lp1199
(lp1200
F0.25
aF0.33
aF0.3
aF0.23
aF0.24
aF0.31
aF0.24
aF0.27
aF0.23
aF0.22
aF0.23
aF0.27
aF0.18
aF0.31
aF0.3
aF0.22
aF0.21
aF0.26
aF0.23
aF0.21
aF0.24
aF0.21
aF0.26
aF0.23
aF0.29
aF0.2
aF0.19
aF0.23
aF0.24
aF0.29
aa(lp1201
g104
((lp1202
(lp1203
g107
aI50
aa(lp1204
g109
aI5
aa(lp1205
g111
aI11
aatp1206
Rp1207
ag104
((lp1208
(lp1209
g107
aI50
aa(lp1210
g109
aI2
aa(lp1211
g111
aI14
aatp1212
Rp1213
ag104
((lp1214
(lp1215
g107
aI50
aa(lp1216
g109
aI6
aa(lp1217
g111
aI12
aatp1218
Rp1219
ag104
((lp1220
(lp1221
g107
aI50
aa(lp1222
g109
aI3
aa(lp1223
g111
aI13
aatp1224
Rp1225
ag104
((lp1226
(lp1227
g107
aI50
aa(lp1228
g109
aI3
aa(lp1229
g111
aI5
aatp1230
Rp1231
ag104
((lp1232
(lp1233
g107
aI50
aa(lp1234
g109
aI3
aa(lp1235
g111
aI13
aatp1236
Rp1237
ag104
((lp1238
(lp1239
g107
aI50
aa(lp1240
g109
aI6
aa(lp1241
g111
aI17
aatp1242
Rp1243
ag104
((lp1244
(lp1245
g107
aI50
aa(lp1246
g109
aI3
aa(lp1247
g111
aI13
aatp1248
Rp1249
ag104
((lp1250
(lp1251
g107
aI50
aa(lp1252
g109
aI1
aa(lp1253
g111
aI7
aatp1254
Rp1255
ag104
((lp1256
(lp1257
g107
aI50
aa(lp1258
g109
aI3
aa(lp1259
g111
aI13
aatp1260
Rp1261
ag104
((lp1262
(lp1263
g107
aI100
aa(lp1264
g109
aI6
aa(lp1265
g111
aI14
aatp1266
Rp1267
ag104
((lp1268
(lp1269
g107
aI50
aa(lp1270
g109
aI2
aa(lp1271
g111
aI20
aatp1272
Rp1273
ag104
((lp1274
(lp1275
g107
aI50
aa(lp1276
g109
aI6
aa(lp1277
g111
aI17
aatp1278
Rp1279
ag104
((lp1280
(lp1281
g107
aI50
aa(lp1282
g109
aI6
aa(lp1283
g111
aI12
aatp1284
Rp1285
ag104
((lp1286
(lp1287
g107
aI50
aa(lp1288
g109
aI3
aa(lp1289
g111
aI15
aatp1290
Rp1291
ag104
((lp1292
(lp1293
g107
aI50
aa(lp1294
g109
aI6
aa(lp1295
g111
aI12
aatp1296
Rp1297
ag104
((lp1298
(lp1299
g107
aI50
aa(lp1300
g109
aI3
aa(lp1301
g111
aI5
aatp1302
Rp1303
ag104
((lp1304
(lp1305
g107
aI50
aa(lp1306
g109
aI3
aa(lp1307
g111
aI13
aatp1308
Rp1309
ag104
((lp1310
(lp1311
g107
aI100
aa(lp1312
g109
aI6
aa(lp1313
g111
aI14
aatp1314
Rp1315
ag104
((lp1316
(lp1317
g107
aI50
aa(lp1318
g109
aI5
aa(lp1319
g111
aI11
aatp1320
Rp1321
ag104
((lp1322
(lp1323
g107
aI100
aa(lp1324
g109
aI4
aa(lp1325
g111
aI19
aatp1326
Rp1327
ag104
((lp1328
(lp1329
g107
aI50
aa(lp1330
g109
aI6
aa(lp1331
g111
aI12
aatp1332
Rp1333
ag104
((lp1334
(lp1335
g107
aI50
aa(lp1336
g109
aI3
aa(lp1337
g111
aI13
aatp1338
Rp1339
ag104
((lp1340
(lp1341
g107
aI50
aa(lp1342
g109
aI6
aa(lp1343
g111
aI17
aatp1344
Rp1345
ag104
((lp1346
(lp1347
g107
aI50
aa(lp1348
g109
aI3
aa(lp1349
g111
aI13
aatp1350
Rp1351
ag104
((lp1352
(lp1353
g107
aI100
aa(lp1354
g109
aI5
aa(lp1355
g111
aI10
aatp1356
Rp1357
ag104
((lp1358
(lp1359
g107
aI50
aa(lp1360
g109
aI3
aa(lp1361
g111
aI5
aatp1362
Rp1363
ag104
((lp1364
(lp1365
g107
aI50
aa(lp1366
g109
aI5
aa(lp1367
g111
aI19
aatp1368
Rp1369
ag104
((lp1370
(lp1371
g107
aI50
aa(lp1372
g109
aI6
aa(lp1373
g111
aI12
aatp1374
Rp1375
ag104
((lp1376
(lp1377
g107
aI50
aa(lp1378
g109
aI3
aa(lp1379
g111
aI5
aatp1380
Rp1381
aaF850.7315049171448
assS'RF'
p1382
(dp1383
g3
(lp1384
(lp1385
g6
(g10
S'\xa4p=\n\xd7\xa3\xc0?'
p1386
tp1387
Rp1388
ag6
(g10
S'\xa4p=\n\xd7\xa3\xc0?'
p1389
tp1390
Rp1391
ag6
(g10
S'\n\xd7\xa3p=\n\xb7?'
p1392
tp1393
Rp1394
ag6
(g10
S'\xa4p=\n\xd7\xa3\xc0?'
p1395
tp1396
Rp1397
ag6
(g10
S'\xb8\x1e\x85\xebQ\xb8\xbe?'
p1398
tp1399
Rp1400
ag6
(g10
S'\xb8\x1e\x85\xebQ\xb8\xbe?'
p1401
tp1402
Rp1403
ag6
(g10
S'\xecQ\xb8\x1e\x85\xeb\xc1?'
p1404
tp1405
Rp1406
ag6
(g10
S'q=\n\xd7\xa3p\xcd?'
p1407
tp1408
Rp1409
ag6
(g10
S'\xb8\x1e\x85\xebQ\xb8\xbe?'
p1410
tp1411
Rp1412
ag6
(g10
S'\xc3\xf5(\\\x8f\xc2\xc5?'
p1413
tp1414
Rp1415
ag6
(g10
S'\x9a\x99\x99\x99\x99\x99\xb9?'
p1416
tp1417
Rp1418
ag6
(g10
S')\\\x8f\xc2\xf5(\xbc?'
p1419
tp1420
Rp1421
ag6
(g10
S'\x9a\x99\x99\x99\x99\x99\xb9?'
p1422
tp1423
Rp1424
ag6
(g10
S'\xb8\x1e\x85\xebQ\xb8\xbe?'
p1425
tp1426
Rp1427
ag6
(g10
S'\n\xd7\xa3p=\n\xb7?'
p1428
tp1429
Rp1430
ag6
(g10
S'\x9a\x99\x99\x99\x99\x99\xb9?'
p1431
tp1432
Rp1433
ag6
(g10
S'\x9a\x99\x99\x99\x99\x99\xb9?'
p1434
tp1435
Rp1436
ag6
(g10
S'{\x14\xaeG\xe1z\xc4?'
p1437
tp1438
Rp1439
ag6
(g10
S'\xb8\x1e\x85\xebQ\xb8\xbe?'
p1440
tp1441
Rp1442
ag6
(g10
S'\xb8\x1e\x85\xebQ\xb8\xbe?'
p1443
tp1444
Rp1445
ag6
(g10
S')\\\x8f\xc2\xf5(\xbc?'
p1446
tp1447
Rp1448
ag6
(g10
S')\\\x8f\xc2\xf5(\xbc?'
p1449
tp1450
Rp1451
ag6
(g10
S'\x9a\x99\x99\x99\x99\x99\xb9?'
p1452
tp1453
Rp1454
ag6
(g10
S')\\\x8f\xc2\xf5(\xbc?'
p1455
tp1456
Rp1457
ag6
(g10
S'\xc3\xf5(\\\x8f\xc2\xc5?'
p1458
tp1459
Rp1460
ag6
(g10
S'\n\xd7\xa3p=\n\xb7?'
p1461
tp1462
Rp1463
ag6
(g10
S')\\\x8f\xc2\xf5(\xbc?'
p1464
tp1465
Rp1466
ag6
(g10
S'{\x14\xaeG\xe1z\xc4?'
p1467
tp1468
Rp1469
ag6
(g10
S'\x9a\x99\x99\x99\x99\x99\xb9?'
p1470
tp1471
Rp1472
ag6
(g10
S'\xb8\x1e\x85\xebQ\xb8\xbe?'
p1473
tp1474
Rp1475
aa(lp1476
g104
((lp1477
(lp1478
g107
aI400
aa(lp1479
g109
aI1
aa(lp1480
g111
aI5
aatp1481
Rp1482
ag104
((lp1483
(lp1484
g107
aI400
aa(lp1485
g109
aI1
aa(lp1486
g111
aI5
aatp1487
Rp1488
ag104
((lp1489
(lp1490
g107
aI400
aa(lp1491
g109
aI6
aa(lp1492
g111
aI12
aatp1493
Rp1494
ag104
((lp1495
(lp1496
g107
aI400
aa(lp1497
g109
aI1
aa(lp1498
g111
aI5
aatp1499
Rp1500
ag104
((lp1501
(lp1502
g107
aI400
aa(lp1503
g109
aI6
aa(lp1504
g111
aI13
aatp1505
Rp1506
ag104
((lp1507
(lp1508
g107
aI400
aa(lp1509
g109
aI6
aa(lp1510
g111
aI13
aatp1511
Rp1512
ag104
((lp1513
(lp1514
g107
aI400
aa(lp1515
g109
aI1
aa(lp1516
g111
aI5
aatp1517
Rp1518
ag104
((lp1519
(lp1520
g107
aI400
aa(lp1521
g109
aI4
aa(lp1522
g111
aI19
aatp1523
Rp1524
ag104
((lp1525
(lp1526
g107
aI400
aa(lp1527
g109
aI2
aa(lp1528
g111
aI19
aatp1529
Rp1530
ag104
((lp1531
(lp1532
g107
aI400
aa(lp1533
g109
aI1
aa(lp1534
g111
aI12
aatp1535
Rp1536
ag104
((lp1537
(lp1538
g107
aI400
aa(lp1539
g109
aI5
aa(lp1540
g111
aI13
aatp1541
Rp1542
ag104
((lp1543
(lp1544
g107
aI400
aa(lp1545
g109
aI1
aa(lp1546
g111
aI5
aatp1547
Rp1548
ag104
((lp1549
(lp1550
g107
aI400
aa(lp1551
g109
aI4
aa(lp1552
g111
aI19
aatp1553
Rp1554
ag104
((lp1555
(lp1556
g107
aI400
aa(lp1557
g109
aI1
aa(lp1558
g111
aI5
aatp1559
Rp1560
ag104
((lp1561
(lp1562
g107
aI400
aa(lp1563
g109
aI1
aa(lp1564
g111
aI5
aatp1565
Rp1566
ag104
((lp1567
(lp1568
g107
aI400
aa(lp1569
g109
aI2
aa(lp1570
g111
aI19
aatp1571
Rp1572
ag104
((lp1573
(lp1574
g107
aI400
aa(lp1575
g109
aI1
aa(lp1576
g111
aI5
aatp1577
Rp1578
ag104
((lp1579
(lp1580
g107
aI400
aa(lp1581
g109
aI6
aa(lp1582
g111
aI12
aatp1583
Rp1584
ag104
((lp1585
(lp1586
g107
aI400
aa(lp1587
g109
aI1
aa(lp1588
g111
aI5
aatp1589
Rp1590
ag104
((lp1591
(lp1592
g107
aI400
aa(lp1593
g109
aI1
aa(lp1594
g111
aI12
aatp1595
Rp1596
ag104
((lp1597
(lp1598
g107
aI400
aa(lp1599
g109
aI1
aa(lp1600
g111
aI5
aatp1601
Rp1602
ag104
((lp1603
(lp1604
g107
aI400
aa(lp1605
g109
aI1
aa(lp1606
g111
aI12
aatp1607
Rp1608
ag104
((lp1609
(lp1610
g107
aI400
aa(lp1611
g109
aI1
aa(lp1612
g111
aI14
aatp1613
Rp1614
ag104
((lp1615
(lp1616
g107
aI400
aa(lp1617
g109
aI1
aa(lp1618
g111
aI5
aatp1619
Rp1620
ag104
((lp1621
(lp1622
g107
aI400
aa(lp1623
g109
aI5
aa(lp1624
g111
aI13
aatp1625
Rp1626
ag104
((lp1627
(lp1628
g107
aI400
aa(lp1629
g109
aI1
aa(lp1630
g111
aI14
aatp1631
Rp1632
ag104
((lp1633
(lp1634
g107
aI400
aa(lp1635
g109
aI1
aa(lp1636
g111
aI5
aatp1637
Rp1638
ag104
((lp1639
(lp1640
g107
aI400
aa(lp1641
g109
aI1
aa(lp1642
g111
aI5
aatp1643
Rp1644
ag104
((lp1645
(lp1646
g107
aI400
aa(lp1647
g109
aI5
aa(lp1648
g111
aI13
aatp1649
Rp1650
ag104
((lp1651
(lp1652
g107
aI400
aa(lp1653
g109
aI5
aa(lp1654
g111
aI13
aatp1655
Rp1656
aaF851.3440299034119
asg288
(lp1657
(lp1658
F0.95
aF0.94
aF0.93
aF0.85
aF0.96
aF0.83
aF0.94
aF0.92
aF0.74
aF0.77
aF0.95
aF0.95
aF0.95
aF0.9
aF0.88
aF0.93
aF0.89
aF0.95
aF0.95
aF0.92
aF0.93
aF0.94
aF0.95
aF0.91
aF0.92
aF0.95
aF0.87
aF0.92
aF0.89
aF0.92
aa(lp1659
g104
((lp1660
(lp1661
g107
aI50
aa(lp1662
g109
aI3
aa(lp1663
g111
aI13
aatp1664
Rp1665
ag104
((lp1666
(lp1667
g107
aI50
aa(lp1668
g109
aI3
aa(lp1669
g111
aI21
aatp1670
Rp1671
ag104
((lp1672
(lp1673
g107
aI50
aa(lp1674
g109
aI3
aa(lp1675
g111
aI5
aatp1676
Rp1677
ag104
((lp1678
(lp1679
g107
aI100
aa(lp1680
g109
aI3
aa(lp1681
g111
aI19
aatp1682
Rp1683
ag104
((lp1684
(lp1685
g107
aI50
aa(lp1686
g109
aI3
aa(lp1687
g111
aI13
aatp1688
Rp1689
ag104
((lp1690
(lp1691
g107
aI100
aa(lp1692
g109
aI3
aa(lp1693
g111
aI20
aatp1694
Rp1695
ag104
((lp1696
(lp1697
g107
aI50
aa(lp1698
g109
aI3
aa(lp1699
g111
aI5
aatp1700
Rp1701
ag104
((lp1702
(lp1703
g107
aI50
aa(lp1704
g109
aI5
aa(lp1705
g111
aI11
aatp1706
Rp1707
ag104
((lp1708
(lp1709
g107
aI200
aa(lp1710
g109
aI4
aa(lp1711
g111
aI10
aatp1712
Rp1713
ag104
((lp1714
(lp1715
g107
aI200
aa(lp1716
g109
aI6
aa(lp1717
g111
aI11
aatp1718
Rp1719
ag104
((lp1720
(lp1721
g107
aI50
aa(lp1722
g109
aI5
aa(lp1723
g111
aI11
aatp1724
Rp1725
ag104
((lp1726
(lp1727
g107
aI50
aa(lp1728
g109
aI3
aa(lp1729
g111
aI5
aatp1730
Rp1731
ag104
((lp1732
(lp1733
g107
aI50
aa(lp1734
g109
aI3
aa(lp1735
g111
aI13
aatp1736
Rp1737
ag104
((lp1738
(lp1739
g107
aI50
aa(lp1740
g109
aI3
aa(lp1741
g111
aI5
aatp1742
Rp1743
ag104
((lp1744
(lp1745
g107
aI100
aa(lp1746
g109
aI1
aa(lp1747
g111
aI18
aatp1748
Rp1749
ag104
((lp1750
(lp1751
g107
aI50
aa(lp1752
g109
aI3
aa(lp1753
g111
aI5
aatp1754
Rp1755
ag104
((lp1756
(lp1757
g107
aI100
aa(lp1758
g109
aI5
aa(lp1759
g111
aI10
aatp1760
Rp1761
ag104
((lp1762
(lp1763
g107
aI50
aa(lp1764
g109
aI5
aa(lp1765
g111
aI11
aatp1766
Rp1767
ag104
((lp1768
(lp1769
g107
aI50
aa(lp1770
g109
aI5
aa(lp1771
g111
aI19
aatp1772
Rp1773
ag104
((lp1774
(lp1775
g107
aI50
aa(lp1776
g109
aI3
aa(lp1777
g111
aI13
aatp1778
Rp1779
ag104
((lp1780
(lp1781
g107
aI50
aa(lp1782
g109
aI3
aa(lp1783
g111
aI13
aatp1784
Rp1785
ag104
((lp1786
(lp1787
g107
aI50
aa(lp1788
g109
aI4
aa(lp1789
g111
aI10
aatp1790
Rp1791
ag104
((lp1792
(lp1793
g107
aI50
aa(lp1794
g109
aI3
aa(lp1795
g111
aI13
aatp1796
Rp1797
ag104
((lp1798
(lp1799
g107
aI50
aa(lp1800
g109
aI3
aa(lp1801
g111
aI15
aatp1802
Rp1803
ag104
((lp1804
(lp1805
g107
aI50
aa(lp1806
g109
aI3
aa(lp1807
g111
aI13
aatp1808
Rp1809
ag104
((lp1810
(lp1811
g107
aI50
aa(lp1812
g109
aI3
aa(lp1813
g111
aI5
aatp1814
Rp1815
ag104
((lp1816
(lp1817
g107
aI100
aa(lp1818
g109
aI2
aa(lp1819
g111
aI19
aatp1820
Rp1821
ag104
((lp1822
(lp1823
g107
aI50
aa(lp1824
g109
aI3
aa(lp1825
g111
aI15
aatp1826
Rp1827
ag104
((lp1828
(lp1829
g107
aI100
aa(lp1830
g109
aI4
aa(lp1831
g111
aI20
aatp1832
Rp1833
ag104
((lp1834
(lp1835
g107
aI50
aa(lp1836
g109
aI5
aa(lp1837
g111
aI11
aatp1838
Rp1839
aaF973.7575578689575
assS'LR'
p1840
(dp1841
g3
(lp1842
(lp1843
F1.0
aF1.0
aF1.0
aF1.0
aF1.0
aF1.0
aF1.0
aF1.0
ag6
(g10
S'\x8f\xc2\xf5(\\\x8f\xea?'
p1844
tp1845
Rp1846
aF1.0
aF1.0
aF1.0
aF1.0
aF1.0
aF1.0
aF1.0
aF1.0
aF1.0
aF1.0
aF1.0
aF1.0
aF1.0
aF1.0
aF1.0
aF1.0
aF1.0
aF1.0
aF1.0
aF1.0
aF1.0
aa(lp1847
g104
((lp1848
(lp1849
g107
aI400
aa(lp1850
g109
aI2
aa(lp1851
g111
aI5
aatp1852
Rp1853
ag104
((lp1854
(lp1855
g107
aI400
aa(lp1856
g109
aI1
aa(lp1857
g111
aI12
aatp1858
Rp1859
ag104
((lp1860
(lp1861
g107
aI400
aa(lp1862
g109
aI1
aa(lp1863
g111
aI5
aatp1864
Rp1865
ag104
((lp1866
(lp1867
g107
aI400
aa(lp1868
g109
aI1
aa(lp1869
g111
aI12
aatp1870
Rp1871
ag104
((lp1872
(lp1873
g107
aI400
aa(lp1874
g109
aI1
aa(lp1875
g111
aI12
aatp1876
Rp1877
ag104
((lp1878
(lp1879
g107
aI400
aa(lp1880
g109
aI1
aa(lp1881
g111
aI12
aatp1882
Rp1883
ag104
((lp1884
(lp1885
g107
aI400
aa(lp1886
g109
aI1
aa(lp1887
g111
aI15
aatp1888
Rp1889
ag104
((lp1890
(lp1891
g107
aI400
aa(lp1892
g109
aI2
aa(lp1893
g111
aI19
aatp1894
Rp1895
ag104
((lp1896
(lp1897
g107
aI400
aa(lp1898
g109
aI1
aa(lp1899
g111
aI5
aatp1900
Rp1901
ag104
((lp1902
(lp1903
g107
aI400
aa(lp1904
g109
aI6
aa(lp1905
g111
aI19
aatp1906
Rp1907
ag104
((lp1908
(lp1909
g107
aI400
aa(lp1910
g109
aI1
aa(lp1911
g111
aI5
aatp1912
Rp1913
ag104
((lp1914
(lp1915
g107
aI400
aa(lp1916
g109
aI2
aa(lp1917
g111
aI15
aatp1918
Rp1919
ag104
((lp1920
(lp1921
g107
aI400
aa(lp1922
g109
aI1
aa(lp1923
g111
aI15
aatp1924
Rp1925
ag104
((lp1926
(lp1927
g107
aI400
aa(lp1928
g109
aI1
aa(lp1929
g111
aI5
aatp1930
Rp1931
ag104
((lp1932
(lp1933
g107
aI400
aa(lp1934
g109
aI1
aa(lp1935
g111
aI5
aatp1936
Rp1937
ag104
((lp1938
(lp1939
g107
aI400
aa(lp1940
g109
aI3
aa(lp1941
g111
aI16
aatp1942
Rp1943
ag104
((lp1944
(lp1945
g107
aI400
aa(lp1946
g109
aI2
aa(lp1947
g111
aI15
aatp1948
Rp1949
ag104
((lp1950
(lp1951
g107
aI400
aa(lp1952
g109
aI2
aa(lp1953
g111
aI19
aatp1954
Rp1955
ag104
((lp1956
(lp1957
g107
aI400
aa(lp1958
g109
aI1
aa(lp1959
g111
aI12
aatp1960
Rp1961
ag104
((lp1962
(lp1963
g107
aI400
aa(lp1964
g109
aI6
aa(lp1965
g111
aI13
aatp1966
Rp1967
ag104
((lp1968
(lp1969
g107
aI400
aa(lp1970
g109
aI2
aa(lp1971
g111
aI19
aatp1972
Rp1973
ag104
((lp1974
(lp1975
g107
aI400
aa(lp1976
g109
aI2
aa(lp1977
g111
aI15
aatp1978
Rp1979
ag104
((lp1980
(lp1981
g107
aI400
aa(lp1982
g109
aI1
aa(lp1983
g111
aI5
aatp1984
Rp1985
ag104
((lp1986
(lp1987
g107
aI400
aa(lp1988
g109
aI2
aa(lp1989
g111
aI15
aatp1990
Rp1991
ag104
((lp1992
(lp1993
g107
aI400
aa(lp1994
g109
aI4
aa(lp1995
g111
aI12
aatp1996
Rp1997
ag104
((lp1998
(lp1999
g107
aI400
aa(lp2000
g109
aI6
aa(lp2001
g111
aI19
aatp2002
Rp2003
ag104
((lp2004
(lp2005
g107
aI400
aa(lp2006
g109
aI2
aa(lp2007
g111
aI15
aatp2008
Rp2009
ag104
((lp2010
(lp2011
g107
aI400
aa(lp2012
g109
aI1
aa(lp2013
g111
aI12
aatp2014
Rp2015
ag104
((lp2016
(lp2017
g107
aI400
aa(lp2018
g109
aI1
aa(lp2019
g111
aI5
aatp2020
Rp2021
ag104
((lp2022
(lp2023
g107
aI400
aa(lp2024
g109
aI6
aa(lp2025
g111
aI19
aatp2026
Rp2027
aaF829.3976099491119
asg288
(lp2028
(lp2029
F1.0
aF0.97
aF1.0
aF1.0
aF0.99
aF1.0
aF1.0
aF1.0
aF1.0
aF1.0
aF1.0
aF1.0
aF1.0
aF1.0
aF0.97
aF1.0
aF1.0
aF1.0
aF1.0
aF1.0
aF1.0
aF1.0
aF1.0
aF0.97
aF1.0
aF1.0
aF0.99
aF1.0
aF1.0
aF1.0
aa(lp2030
g104
((lp2031
(lp2032
g107
aI50
aa(lp2033
g109
aI6
aa(lp2034
g111
aI8
aatp2035
Rp2036
ag104
((lp2037
(lp2038
g107
aI400
aa(lp2039
g109
aI6
aa(lp2040
g111
aI15
aatp2041
Rp2042
ag104
((lp2043
(lp2044
g107
aI50
aa(lp2045
g109
aI3
aa(lp2046
g111
aI13
aatp2047
Rp2048
ag104
((lp2049
(lp2050
g107
aI200
aa(lp2051
g109
aI3
aa(lp2052
g111
aI5
aatp2053
Rp2054
ag104
((lp2055
(lp2056
g107
aI200
aa(lp2057
g109
aI6
aa(lp2058
g111
aI18
aatp2059
Rp2060
ag104
((lp2061
(lp2062
g107
aI50
aa(lp2063
g109
aI3
aa(lp2064
g111
aI13
aatp2065
Rp2066
ag104
((lp2067
(lp2068
g107
aI200
aa(lp2069
g109
aI5
aa(lp2070
g111
aI7
aatp2071
Rp2072
ag104
((lp2073
(lp2074
g107
aI50
aa(lp2075
g109
aI3
aa(lp2076
g111
aI13
aatp2077
Rp2078
ag104
((lp2079
(lp2080
g107
aI50
aa(lp2081
g109
aI3
aa(lp2082
g111
aI13
aatp2083
Rp2084
ag104
((lp2085
(lp2086
g107
aI50
aa(lp2087
g109
aI3
aa(lp2088
g111
aI13
aatp2089
Rp2090
ag104
((lp2091
(lp2092
g107
aI200
aa(lp2093
g109
aI2
aa(lp2094
g111
aI21
aatp2095
Rp2096
ag104
((lp2097
(lp2098
g107
aI200
aa(lp2099
g109
aI5
aa(lp2100
g111
aI15
aatp2101
Rp2102
ag104
((lp2103
(lp2104
g107
aI200
aa(lp2105
g109
aI2
aa(lp2106
g111
aI12
aatp2107
Rp2108
ag104
((lp2109
(lp2110
g107
aI200
aa(lp2111
g109
aI5
aa(lp2112
g111
aI7
aatp2113
Rp2114
ag104
((lp2115
(lp2116
g107
aI400
aa(lp2117
g109
aI1
aa(lp2118
g111
aI12
aatp2119
Rp2120
ag104
((lp2121
(lp2122
g107
aI50
aa(lp2123
g109
aI3
aa(lp2124
g111
aI13
aatp2125
Rp2126
ag104
((lp2127
(lp2128
g107
aI200
aa(lp2129
g109
aI2
aa(lp2130
g111
aI12
aatp2131
Rp2132
ag104
((lp2133
(lp2134
g107
aI200
aa(lp2135
g109
aI3
aa(lp2136
g111
aI11
aatp2137
Rp2138
ag104
((lp2139
(lp2140
g107
aI200
aa(lp2141
g109
aI3
aa(lp2142
g111
aI5
aatp2143
Rp2144
ag104
((lp2145
(lp2146
g107
aI100
aa(lp2147
g109
aI3
aa(lp2148
g111
aI17
aatp2149
Rp2150
ag104
((lp2151
(lp2152
g107
aI200
aa(lp2153
g109
aI2
aa(lp2154
g111
aI21
aatp2155
Rp2156
ag104
((lp2157
(lp2158
g107
aI200
aa(lp2159
g109
aI6
aa(lp2160
g111
aI9
aatp2161
Rp2162
ag104
((lp2163
(lp2164
g107
aI50
aa(lp2165
g109
aI3
aa(lp2166
g111
aI13
aatp2167
Rp2168
ag104
((lp2169
(lp2170
g107
aI400
aa(lp2171
g109
aI2
aa(lp2172
g111
aI19
aatp2173
Rp2174
ag104
((lp2175
(lp2176
g107
aI50
aa(lp2177
g109
aI3
aa(lp2178
g111
aI13
aatp2179
Rp2180
ag104
((lp2181
(lp2182
g107
aI200
aa(lp2183
g109
aI4
aa(lp2184
g111
aI14
aatp2185
Rp2186
ag104
((lp2187
(lp2188
g107
aI200
aa(lp2189
g109
aI3
aa(lp2190
g111
aI11
aatp2191
Rp2192
ag104
((lp2193
(lp2194
g107
aI50
aa(lp2195
g109
aI3
aa(lp2196
g111
aI13
aatp2197
Rp2198
ag104
((lp2199
(lp2200
g107
aI50
aa(lp2201
g109
aI5
aa(lp2202
g111
aI11
aatp2203
Rp2204
ag104
((lp2205
(lp2206
g107
aI50
aa(lp2207
g109
aI3
aa(lp2208
g111
aI13
aatp2209
Rp2210
aaF933.3874621391296
assS'DT'
p2211
(dp2212
g3
(lp2213
(lp2214
g6
(g10
S'R\xb8\x1e\x85\xebQ\xc8?'
p2215
tp2216
Rp2217
ag6
(g10
S'\xc3\xf5(\\\x8f\xc2\xc5?'
p2218
tp2219
Rp2220
ag6
(g10
S'\xecQ\xb8\x1e\x85\xeb\xc1?'
p2221
tp2222
Rp2223
ag6
(g10
S'\n\xd7\xa3p=\n\xc7?'
p2224
tp2225
Rp2226
ag6
(g10
S'\n\xd7\xa3p=\n\xc7?'
p2227
tp2228
Rp2229
ag6
(g10
S'{\x14\xaeG\xe1z\xc4?'
p2230
tp2231
Rp2232
ag6
(g10
S')\\\x8f\xc2\xf5(\xcc?'
p2233
tp2234
Rp2235
ag6
(g10
S'{\x14\xaeG\xe1z\xc4?'
p2236
tp2237
Rp2238
ag6
(g10
S'\xb8\x1e\x85\xebQ\xb8\xce?'
p2239
tp2240
Rp2241
ag6
(g10
S'{\x14\xaeG\xe1z\xc4?'
p2242
tp2243
Rp2244
ag6
(g10
S'{\x14\xaeG\xe1z\xc4?'
p2245
tp2246
Rp2247
ag6
(g10
S'\xa4p=\n\xd7\xa3\xc0?'
p2248
tp2249
Rp2250
ag6
(g10
S'\n\xd7\xa3p=\n\xc7?'
p2251
tp2252
Rp2253
ag6
(g10
S'333333\xc3?'
p2254
tp2255
Rp2256
ag6
(g10
S'\xe1z\x14\xaeG\xe1\xca?'
p2257
tp2258
Rp2259
ag6
(g10
S'R\xb8\x1e\x85\xebQ\xc8?'
p2260
tp2261
Rp2262
ag6
(g10
S'R\xb8\x1e\x85\xebQ\xc8?'
p2263
tp2264
Rp2265
ag6
(g10
S'\xecQ\xb8\x1e\x85\xeb\xc1?'
p2266
tp2267
Rp2268
ag6
(g10
S'\n\xd7\xa3p=\n\xc7?'
p2269
tp2270
Rp2271
ag6
(g10
S'\xc3\xf5(\\\x8f\xc2\xc5?'
p2272
tp2273
Rp2274
ag6
(g10
S'\xecQ\xb8\x1e\x85\xeb\xc1?'
p2275
tp2276
Rp2277
ag6
(g10
S'{\x14\xaeG\xe1z\xc4?'
p2278
tp2279
Rp2280
ag6
(g10
S'333333\xc3?'
p2281
tp2282
Rp2283
ag6
(g10
S'\n\xd7\xa3p=\n\xc7?'
p2284
tp2285
Rp2286
ag6
(g10
S'{\x14\xaeG\xe1z\xc4?'
p2287
tp2288
Rp2289
ag6
(g10
S'\xb8\x1e\x85\xebQ\xb8\xbe?'
p2290
tp2291
Rp2292
ag6
(g10
S'\xecQ\xb8\x1e\x85\xeb\xc1?'
p2293
tp2294
Rp2295
ag6
(g10
S'333333\xc3?'
p2296
tp2297
Rp2298
ag6
(g10
S'333333\xc3?'
p2299
tp2300
Rp2301
ag6
(g10
S'{\x14\xaeG\xe1z\xc4?'
p2302
tp2303
Rp2304
aa(lp2305
g104
((lp2306
(lp2307
g107
aI400
aa(lp2308
g109
aI2
aa(lp2309
g111
aI19
aatp2310
Rp2311
ag104
((lp2312
(lp2313
g107
aI400
aa(lp2314
g109
aI6
aa(lp2315
g111
aI12
aatp2316
Rp2317
ag104
((lp2318
(lp2319
g107
aI400
aa(lp2320
g109
aI4
aa(lp2321
g111
aI19
aatp2322
Rp2323
ag104
((lp2324
(lp2325
g107
aI400
aa(lp2326
g109
aI1
aa(lp2327
g111
aI5
aatp2328
Rp2329
ag104
((lp2330
(lp2331
g107
aI400
aa(lp2332
g109
aI1
aa(lp2333
g111
aI14
aatp2334
Rp2335
ag104
((lp2336
(lp2337
g107
aI400
aa(lp2338
g109
aI5
aa(lp2339
g111
aI13
aatp2340
Rp2341
ag104
((lp2342
(lp2343
g107
aI400
aa(lp2344
g109
aI5
aa(lp2345
g111
aI13
aatp2346
Rp2347
ag104
((lp2348
(lp2349
g107
aI400
aa(lp2350
g109
aI1
aa(lp2351
g111
aI12
aatp2352
Rp2353
ag104
((lp2354
(lp2355
g107
aI400
aa(lp2356
g109
aI1
aa(lp2357
g111
aI12
aatp2358
Rp2359
ag104
((lp2360
(lp2361
g107
aI400
aa(lp2362
g109
aI1
aa(lp2363
g111
aI12
aatp2364
Rp2365
ag104
((lp2366
(lp2367
g107
aI400
aa(lp2368
g109
aI2
aa(lp2369
g111
aI19
aatp2370
Rp2371
ag104
((lp2372
(lp2373
g107
aI400
aa(lp2374
g109
aI2
aa(lp2375
g111
aI19
aatp2376
Rp2377
ag104
((lp2378
(lp2379
g107
aI400
aa(lp2380
g109
aI4
aa(lp2381
g111
aI19
aatp2382
Rp2383
ag104
((lp2384
(lp2385
g107
aI400
aa(lp2386
g109
aI1
aa(lp2387
g111
aI5
aatp2388
Rp2389
ag104
((lp2390
(lp2391
g107
aI400
aa(lp2392
g109
aI1
aa(lp2393
g111
aI12
aatp2394
Rp2395
ag104
((lp2396
(lp2397
g107
aI400
aa(lp2398
g109
aI5
aa(lp2399
g111
aI13
aatp2400
Rp2401
ag104
((lp2402
(lp2403
g107
aI400
aa(lp2404
g109
aI4
aa(lp2405
g111
aI19
aatp2406
Rp2407
ag104
((lp2408
(lp2409
g107
aI400
aa(lp2410
g109
aI6
aa(lp2411
g111
aI12
aatp2412
Rp2413
ag104
((lp2414
(lp2415
g107
aI400
aa(lp2416
g109
aI6
aa(lp2417
g111
aI13
aatp2418
Rp2419
ag104
((lp2420
(lp2421
g107
aI400
aa(lp2422
g109
aI5
aa(lp2423
g111
aI13
aatp2424
Rp2425
ag104
((lp2426
(lp2427
g107
aI400
aa(lp2428
g109
aI1
aa(lp2429
g111
aI14
aatp2430
Rp2431
ag104
((lp2432
(lp2433
g107
aI400
aa(lp2434
g109
aI2
aa(lp2435
g111
aI19
aatp2436
Rp2437
ag104
((lp2438
(lp2439
g107
aI400
aa(lp2440
g109
aI1
aa(lp2441
g111
aI5
aatp2442
Rp2443
ag104
((lp2444
(lp2445
g107
aI400
aa(lp2446
g109
aI6
aa(lp2447
g111
aI13
aatp2448
Rp2449
ag104
((lp2450
(lp2451
g107
aI400
aa(lp2452
g109
aI1
aa(lp2453
g111
aI12
aatp2454
Rp2455
ag104
((lp2456
(lp2457
g107
aI400
aa(lp2458
g109
aI1
aa(lp2459
g111
aI14
aatp2460
Rp2461
ag104
((lp2462
(lp2463
g107
aI400
aa(lp2464
g109
aI1
aa(lp2465
g111
aI12
aatp2466
Rp2467
ag104
((lp2468
(lp2469
g107
aI400
aa(lp2470
g109
aI5
aa(lp2471
g111
aI13
aatp2472
Rp2473
ag104
((lp2474
(lp2475
g107
aI400
aa(lp2476
g109
aI1
aa(lp2477
g111
aI12
aatp2478
Rp2479
ag104
((lp2480
(lp2481
g107
aI400
aa(lp2482
g109
aI1
aa(lp2483
g111
aI12
aatp2484
Rp2485
aaF774.6478109359741
asg288
(lp2486
(lp2487
F0.89
aF0.89
aF0.89
aF0.89
aF0.91
aF0.9
aF0.88
aF0.86
aF0.87
aF0.89
aF0.91
aF0.77
aF0.9
aF0.87
aF0.81
aF0.9
aF0.89
aF0.87
aF0.91
aF0.8
aF0.78
aF0.88
aF0.88
aF0.89
aF0.81
aF0.9
aF0.87
aF0.87
aF0.81
aF0.82
aa(lp2488
g104
((lp2489
(lp2490
g107
aI50
aa(lp2491
g109
aI3
aa(lp2492
g111
aI20
aatp2493
Rp2494
ag104
((lp2495
(lp2496
g107
aI50
aa(lp2497
g109
aI6
aa(lp2498
g111
aI17
aatp2499
Rp2500
ag104
((lp2501
(lp2502
g107
aI50
aa(lp2503
g109
aI3
aa(lp2504
g111
aI13
aatp2505
Rp2506
ag104
((lp2507
(lp2508
g107
aI50
aa(lp2509
g109
aI1
aa(lp2510
g111
aI14
aatp2511
Rp2512
ag104
((lp2513
(lp2514
g107
aI50
aa(lp2515
g109
aI6
aa(lp2516
g111
aI12
aatp2517
Rp2518
ag104
((lp2519
(lp2520
g107
aI50
aa(lp2521
g109
aI3
aa(lp2522
g111
aI13
aatp2523
Rp2524
ag104
((lp2525
(lp2526
g107
aI50
aa(lp2527
g109
aI5
aa(lp2528
g111
aI11
aatp2529
Rp2530
ag104
((lp2531
(lp2532
g107
aI50
aa(lp2533
g109
aI6
aa(lp2534
g111
aI12
aatp2535
Rp2536
ag104
((lp2537
(lp2538
g107
aI50
aa(lp2539
g109
aI3
aa(lp2540
g111
aI20
aatp2541
Rp2542
ag104
((lp2543
(lp2544
g107
aI50
aa(lp2545
g109
aI3
aa(lp2546
g111
aI13
aatp2547
Rp2548
ag104
((lp2549
(lp2550
g107
aI50
aa(lp2551
g109
aI6
aa(lp2552
g111
aI12
aatp2553
Rp2554
ag104
((lp2555
(lp2556
g107
aI100
aa(lp2557
g109
aI5
aa(lp2558
g111
aI8
aatp2559
Rp2560
ag104
((lp2561
(lp2562
g107
aI50
aa(lp2563
g109
aI1
aa(lp2564
g111
aI15
aatp2565
Rp2566
ag104
((lp2567
(lp2568
g107
aI50
aa(lp2569
g109
aI3
aa(lp2570
g111
aI10
aatp2571
Rp2572
ag104
((lp2573
(lp2574
g107
aI100
aa(lp2575
g109
aI3
aa(lp2576
g111
aI19
aatp2577
Rp2578
ag104
((lp2579
(lp2580
g107
aI50
aa(lp2581
g109
aI3
aa(lp2582
g111
aI13
aatp2583
Rp2584
ag104
((lp2585
(lp2586
g107
aI50
aa(lp2587
g109
aI6
aa(lp2588
g111
aI7
aatp2589
Rp2590
ag104
((lp2591
(lp2592
g107
aI50
aa(lp2593
g109
aI6
aa(lp2594
g111
aI12
aatp2595
Rp2596
ag104
((lp2597
(lp2598
g107
aI50
aa(lp2599
g109
aI1
aa(lp2600
g111
aI15
aatp2601
Rp2602
ag104
((lp2603
(lp2604
g107
aI100
aa(lp2605
g109
aI3
aa(lp2606
g111
aI15
aatp2607
Rp2608
ag104
((lp2609
(lp2610
g107
aI100
aa(lp2611
g109
aI3
aa(lp2612
g111
aI19
aatp2613
Rp2614
ag104
((lp2615
(lp2616
g107
aI50
aa(lp2617
g109
aI2
aa(lp2618
g111
aI20
aatp2619
Rp2620
ag104
((lp2621
(lp2622
g107
aI50
aa(lp2623
g109
aI3
aa(lp2624
g111
aI13
aatp2625
Rp2626
ag104
((lp2627
(lp2628
g107
aI50
aa(lp2629
g109
aI3
aa(lp2630
g111
aI5
aatp2631
Rp2632
ag104
((lp2633
(lp2634
g107
aI100
aa(lp2635
g109
aI2
aa(lp2636
g111
aI19
aatp2637
Rp2638
ag104
((lp2639
(lp2640
g107
aI50
aa(lp2641
g109
aI5
aa(lp2642
g111
aI11
aatp2643
Rp2644
ag104
((lp2645
(lp2646
g107
aI50
aa(lp2647
g109
aI3
aa(lp2648
g111
aI13
aatp2649
Rp2650
ag104
((lp2651
(lp2652
g107
aI50
aa(lp2653
g109
aI1
aa(lp2654
g111
aI14
aatp2655
Rp2656
ag104
((lp2657
(lp2658
g107
aI100
aa(lp2659
g109
aI2
aa(lp2660
g111
aI5
aatp2661
Rp2662
ag104
((lp2663
(lp2664
g107
aI100
aa(lp2665
g109
aI4
aa(lp2666
g111
aI17
aatp2667
Rp2668
aaF880.8284759521484
ass.